;***************************************************************
;* TMS320C2000 C/C++ Codegen                   PC v15.12.3.LTS *
;* Date/Time created: Sun May 21 14:55:00 2017                 *
;***************************************************************
	.compiler_opts --abi=coffabi --cla_support=cla1 --float_support=fpu32 --hll_source=on --mem_model:code=flat --mem_model:data=large --object_format=coff --silicon_version=28 --symdebug:dwarf --symdebug:dwarf_version=3 --tmu_support=tmu0 
FP	.set	XAR2

$C$DW$CU	.dwtag  DW_TAG_compile_unit
	.dwattr $C$DW$CU, DW_AT_name("C:/ti/controlSUITE/device_support/F2837xD/v210/F2837xD_common/source/F2837xD_DefaultISR.c")
	.dwattr $C$DW$CU, DW_AT_producer("TI TMS320C2000 C/C++ Codegen PC v15.12.3.LTS Copyright (c) 1996-2015 Texas Instruments Incorporated")
	.dwattr $C$DW$CU, DW_AT_TI_version(0x01)
	.dwattr $C$DW$CU, DW_AT_comp_dir("C:\Users\Adriano\Documents\GitHub\LAUNCHXL-F28379D\Workspace\cla_asin_dc_cpu02\CPU2_RAM")
;	C:\ti\c2000_15.12.3.LTS\bin\ac2000.exe -@C:\\Users\\Adriano\\AppData\\Local\\Temp\\0308812 
	.sect	".text:retain"
	.retain
	.retainrefs
	.global	_TIMER1_ISR

$C$DW$1	.dwtag  DW_TAG_subprogram
	.dwattr $C$DW$1, DW_AT_name("TIMER1_ISR")
	.dwattr $C$DW$1, DW_AT_low_pc(_TIMER1_ISR)
	.dwattr $C$DW$1, DW_AT_high_pc(0x00)
	.dwattr $C$DW$1, DW_AT_TI_symbol_name("_TIMER1_ISR")
	.dwattr $C$DW$1, DW_AT_external
	.dwattr $C$DW$1, DW_AT_TI_begin_file("C:/ti/controlSUITE/device_support/F2837xD/v210/F2837xD_common/source/F2837xD_DefaultISR.c")
	.dwattr $C$DW$1, DW_AT_TI_begin_line(0x17)
	.dwattr $C$DW$1, DW_AT_TI_begin_column(0x10)
	.dwattr $C$DW$1, DW_AT_TI_interrupt
	.dwattr $C$DW$1, DW_AT_TI_max_frame_size(-6)
	.dwpsn	file "C:/ti/controlSUITE/device_support/F2837xD/v210/F2837xD_common/source/F2837xD_DefaultISR.c",line 24,column 1,is_stmt,address _TIMER1_ISR,isa 0

	.dwfde $C$DW$CIE, _TIMER1_ISR
;----------------------------------------------------------------------
;  23 | interrupt void TIMER1_ISR(void)                                        
;  25 | //                                                                     
;  26 | // Insert ISR Code here                                                
;  27 | //                                                                     
;  29 | //                                                                     
;  30 | // Next two lines for debug only to halt the processor here            
;  31 | // Remove after inserting ISR Code                                     
;  32 | //                                                                     
;----------------------------------------------------------------------

;***************************************************************
;* FNAME: _TIMER1_ISR                   FR SIZE:   4           *
;*                                                             *
;* FUNCTION ENVIRONMENT                                        *
;*                                                             *
;* FUNCTION PROPERTIES                                         *
;*                            0 Parameter,  0 Auto,  4 SOE     *
;***************************************************************

_TIMER1_ISR:
	.dwcfi	cfa_offset, -2
	.dwcfi	save_reg_to_mem, 26, 0
        ASP       ; [CPU_] 
        PUSH      RB                    ; [CPU_] 
	.dwcfi	save_reg_to_mem, 73, 2
	.dwcfi	save_reg_to_mem, 74, 3
	.dwcfi	cfa_offset, -4
        MOV32     *SP++,STF             ; [CPU_] 
	.dwcfi	save_reg_to_mem, 39, 4
	.dwcfi	save_reg_to_mem, 40, 5
	.dwcfi	cfa_offset, -6
        SETFLG    RNDF32=1, RNDF64=1    ; [CPU_] 
        CLRC      PAGE0,OVM             ; [CPU_] 
        CLRC      AMODE                 ; [CPU_] 
	.dwpsn	file "C:/ti/controlSUITE/device_support/F2837xD/v210/F2837xD_common/source/F2837xD_DefaultISR.c",line 33,column 5,is_stmt,isa 0
;----------------------------------------------------------------------
;  33 | asm ("      ESTOP0");                                                  
;----------------------------------------------------------------------
      ESTOP0
$C$L1:    
	.dwpsn	file "C:/ti/controlSUITE/device_support/F2837xD/v210/F2837xD_common/source/F2837xD_DefaultISR.c",line 34,column 5,is_stmt,isa 0
;----------------------------------------------------------------------
;  34 | for(;;);                                                               
;----------------------------------------------------------------------
        B         $C$L1,UNC             ; [CPU_] |34| 
        ; branch occurs ; [] |34| 
	.dwattr $C$DW$1, DW_AT_TI_end_file("C:/ti/controlSUITE/device_support/F2837xD/v210/F2837xD_common/source/F2837xD_DefaultISR.c")
	.dwattr $C$DW$1, DW_AT_TI_end_line(0x23)
	.dwattr $C$DW$1, DW_AT_TI_end_column(0x01)
	.dwendentry
	.dwendtag $C$DW$1

	.sect	".text:retain"
	.retain
	.retainrefs
	.global	_TIMER2_ISR

$C$DW$2	.dwtag  DW_TAG_subprogram
	.dwattr $C$DW$2, DW_AT_name("TIMER2_ISR")
	.dwattr $C$DW$2, DW_AT_low_pc(_TIMER2_ISR)
	.dwattr $C$DW$2, DW_AT_high_pc(0x00)
	.dwattr $C$DW$2, DW_AT_TI_symbol_name("_TIMER2_ISR")
	.dwattr $C$DW$2, DW_AT_external
	.dwattr $C$DW$2, DW_AT_TI_begin_file("C:/ti/controlSUITE/device_support/F2837xD/v210/F2837xD_common/source/F2837xD_DefaultISR.c")
	.dwattr $C$DW$2, DW_AT_TI_begin_line(0x28)
	.dwattr $C$DW$2, DW_AT_TI_begin_column(0x10)
	.dwattr $C$DW$2, DW_AT_TI_interrupt
	.dwattr $C$DW$2, DW_AT_TI_max_frame_size(-6)
	.dwpsn	file "C:/ti/controlSUITE/device_support/F2837xD/v210/F2837xD_common/source/F2837xD_DefaultISR.c",line 41,column 1,is_stmt,address _TIMER2_ISR,isa 0

	.dwfde $C$DW$CIE, _TIMER2_ISR
;----------------------------------------------------------------------
;  40 | interrupt void TIMER2_ISR(void)                                        
;  42 | //                                                                     
;  43 | // Insert ISR Code here                                                
;  44 | //                                                                     
;  46 | //                                                                     
;  47 | // Next two lines for debug only to halt the processor here            
;  48 | // Remove after inserting ISR Code                                     
;  49 | //                                                                     
;----------------------------------------------------------------------

;***************************************************************
;* FNAME: _TIMER2_ISR                   FR SIZE:   4           *
;*                                                             *
;* FUNCTION ENVIRONMENT                                        *
;*                                                             *
;* FUNCTION PROPERTIES                                         *
;*                            0 Parameter,  0 Auto,  4 SOE     *
;***************************************************************

_TIMER2_ISR:
	.dwcfi	cfa_offset, -2
	.dwcfi	save_reg_to_mem, 26, 0
        ASP       ; [CPU_] 
        PUSH      RB                    ; [CPU_] 
	.dwcfi	save_reg_to_mem, 73, 2
	.dwcfi	save_reg_to_mem, 74, 3
	.dwcfi	cfa_offset, -4
        MOV32     *SP++,STF             ; [CPU_] 
	.dwcfi	save_reg_to_mem, 39, 4
	.dwcfi	save_reg_to_mem, 40, 5
	.dwcfi	cfa_offset, -6
        SETFLG    RNDF32=1, RNDF64=1    ; [CPU_] 
        CLRC      PAGE0,OVM             ; [CPU_] 
        CLRC      AMODE                 ; [CPU_] 
	.dwpsn	file "C:/ti/controlSUITE/device_support/F2837xD/v210/F2837xD_common/source/F2837xD_DefaultISR.c",line 50,column 5,is_stmt,isa 0
;----------------------------------------------------------------------
;  50 | asm ("      ESTOP0");                                                  
;----------------------------------------------------------------------
      ESTOP0
$C$L2:    
	.dwpsn	file "C:/ti/controlSUITE/device_support/F2837xD/v210/F2837xD_common/source/F2837xD_DefaultISR.c",line 51,column 5,is_stmt,isa 0
;----------------------------------------------------------------------
;  51 | for(;;);                                                               
;----------------------------------------------------------------------
        B         $C$L2,UNC             ; [CPU_] |51| 
        ; branch occurs ; [] |51| 
	.dwattr $C$DW$2, DW_AT_TI_end_file("C:/ti/controlSUITE/device_support/F2837xD/v210/F2837xD_common/source/F2837xD_DefaultISR.c")
	.dwattr $C$DW$2, DW_AT_TI_end_line(0x34)
	.dwattr $C$DW$2, DW_AT_TI_end_column(0x01)
	.dwendentry
	.dwendtag $C$DW$2

	.sect	".text:retain"
	.retain
	.retainrefs
	.global	_DATALOG_ISR

$C$DW$3	.dwtag  DW_TAG_subprogram
	.dwattr $C$DW$3, DW_AT_name("DATALOG_ISR")
	.dwattr $C$DW$3, DW_AT_low_pc(_DATALOG_ISR)
	.dwattr $C$DW$3, DW_AT_high_pc(0x00)
	.dwattr $C$DW$3, DW_AT_TI_symbol_name("_DATALOG_ISR")
	.dwattr $C$DW$3, DW_AT_external
	.dwattr $C$DW$3, DW_AT_TI_begin_file("C:/ti/controlSUITE/device_support/F2837xD/v210/F2837xD_common/source/F2837xD_DefaultISR.c")
	.dwattr $C$DW$3, DW_AT_TI_begin_line(0x39)
	.dwattr $C$DW$3, DW_AT_TI_begin_column(0x10)
	.dwattr $C$DW$3, DW_AT_TI_interrupt
	.dwattr $C$DW$3, DW_AT_TI_max_frame_size(-6)
	.dwpsn	file "C:/ti/controlSUITE/device_support/F2837xD/v210/F2837xD_common/source/F2837xD_DefaultISR.c",line 58,column 1,is_stmt,address _DATALOG_ISR,isa 0

	.dwfde $C$DW$CIE, _DATALOG_ISR
;----------------------------------------------------------------------
;  57 | interrupt void DATALOG_ISR(void)                                       
;  59 | //                                                                     
;  60 | // Insert ISR Code here                                                
;  61 | //                                                                     
;  63 | //                                                                     
;  64 | // Next two lines for debug only to halt the processor here            
;  65 | // Remove after inserting ISR Code                                     
;  66 | //                                                                     
;----------------------------------------------------------------------

;***************************************************************
;* FNAME: _DATALOG_ISR                  FR SIZE:   4           *
;*                                                             *
;* FUNCTION ENVIRONMENT                                        *
;*                                                             *
;* FUNCTION PROPERTIES                                         *
;*                            0 Parameter,  0 Auto,  4 SOE     *
;***************************************************************

_DATALOG_ISR:
	.dwcfi	cfa_offset, -2
	.dwcfi	save_reg_to_mem, 26, 0
        ASP       ; [CPU_] 
        PUSH      RB                    ; [CPU_] 
	.dwcfi	save_reg_to_mem, 73, 2
	.dwcfi	save_reg_to_mem, 74, 3
	.dwcfi	cfa_offset, -4
        MOV32     *SP++,STF             ; [CPU_] 
	.dwcfi	save_reg_to_mem, 39, 4
	.dwcfi	save_reg_to_mem, 40, 5
	.dwcfi	cfa_offset, -6
        SETFLG    RNDF32=1, RNDF64=1    ; [CPU_] 
        CLRC      PAGE0,OVM             ; [CPU_] 
        CLRC      AMODE                 ; [CPU_] 
	.dwpsn	file "C:/ti/controlSUITE/device_support/F2837xD/v210/F2837xD_common/source/F2837xD_DefaultISR.c",line 67,column 5,is_stmt,isa 0
;----------------------------------------------------------------------
;  67 | asm ("      ESTOP0");                                                  
;----------------------------------------------------------------------
      ESTOP0
$C$L3:    
	.dwpsn	file "C:/ti/controlSUITE/device_support/F2837xD/v210/F2837xD_common/source/F2837xD_DefaultISR.c",line 68,column 5,is_stmt,isa 0
;----------------------------------------------------------------------
;  68 | for(;;);                                                               
;----------------------------------------------------------------------
        B         $C$L3,UNC             ; [CPU_] |68| 
        ; branch occurs ; [] |68| 
	.dwattr $C$DW$3, DW_AT_TI_end_file("C:/ti/controlSUITE/device_support/F2837xD/v210/F2837xD_common/source/F2837xD_DefaultISR.c")
	.dwattr $C$DW$3, DW_AT_TI_end_line(0x45)
	.dwattr $C$DW$3, DW_AT_TI_end_column(0x01)
	.dwendentry
	.dwendtag $C$DW$3

	.sect	".text:retain"
	.retain
	.retainrefs
	.global	_RTOS_ISR

$C$DW$4	.dwtag  DW_TAG_subprogram
	.dwattr $C$DW$4, DW_AT_name("RTOS_ISR")
	.dwattr $C$DW$4, DW_AT_low_pc(_RTOS_ISR)
	.dwattr $C$DW$4, DW_AT_high_pc(0x00)
	.dwattr $C$DW$4, DW_AT_TI_symbol_name("_RTOS_ISR")
	.dwattr $C$DW$4, DW_AT_external
	.dwattr $C$DW$4, DW_AT_TI_begin_file("C:/ti/controlSUITE/device_support/F2837xD/v210/F2837xD_common/source/F2837xD_DefaultISR.c")
	.dwattr $C$DW$4, DW_AT_TI_begin_line(0x4a)
	.dwattr $C$DW$4, DW_AT_TI_begin_column(0x10)
	.dwattr $C$DW$4, DW_AT_TI_interrupt
	.dwattr $C$DW$4, DW_AT_TI_max_frame_size(-6)
	.dwpsn	file "C:/ti/controlSUITE/device_support/F2837xD/v210/F2837xD_common/source/F2837xD_DefaultISR.c",line 75,column 1,is_stmt,address _RTOS_ISR,isa 0

	.dwfde $C$DW$CIE, _RTOS_ISR
;----------------------------------------------------------------------
;  74 | interrupt void RTOS_ISR(void)                                          
;  76 | //                                                                     
;  77 | // Insert ISR Code here                                                
;  78 | //                                                                     
;  80 | //                                                                     
;  81 | // Next two lines for debug only to halt the processor here            
;  82 | // Remove after inserting ISR Code                                     
;  83 | //                                                                     
;----------------------------------------------------------------------

;***************************************************************
;* FNAME: _RTOS_ISR                     FR SIZE:   4           *
;*                                                             *
;* FUNCTION ENVIRONMENT                                        *
;*                                                             *
;* FUNCTION PROPERTIES                                         *
;*                            0 Parameter,  0 Auto,  4 SOE     *
;***************************************************************

_RTOS_ISR:
	.dwcfi	cfa_offset, -2
	.dwcfi	save_reg_to_mem, 26, 0
        ASP       ; [CPU_] 
        PUSH      RB                    ; [CPU_] 
	.dwcfi	save_reg_to_mem, 73, 2
	.dwcfi	save_reg_to_mem, 74, 3
	.dwcfi	cfa_offset, -4
        MOV32     *SP++,STF             ; [CPU_] 
	.dwcfi	save_reg_to_mem, 39, 4
	.dwcfi	save_reg_to_mem, 40, 5
	.dwcfi	cfa_offset, -6
        SETFLG    RNDF32=1, RNDF64=1    ; [CPU_] 
        CLRC      PAGE0,OVM             ; [CPU_] 
        CLRC      AMODE                 ; [CPU_] 
	.dwpsn	file "C:/ti/controlSUITE/device_support/F2837xD/v210/F2837xD_common/source/F2837xD_DefaultISR.c",line 84,column 5,is_stmt,isa 0
;----------------------------------------------------------------------
;  84 | asm ("      ESTOP0");                                                  
;----------------------------------------------------------------------
      ESTOP0
$C$L4:    
	.dwpsn	file "C:/ti/controlSUITE/device_support/F2837xD/v210/F2837xD_common/source/F2837xD_DefaultISR.c",line 85,column 5,is_stmt,isa 0
;----------------------------------------------------------------------
;  85 | for(;;);                                                               
;----------------------------------------------------------------------
        B         $C$L4,UNC             ; [CPU_] |85| 
        ; branch occurs ; [] |85| 
	.dwattr $C$DW$4, DW_AT_TI_end_file("C:/ti/controlSUITE/device_support/F2837xD/v210/F2837xD_common/source/F2837xD_DefaultISR.c")
	.dwattr $C$DW$4, DW_AT_TI_end_line(0x56)
	.dwattr $C$DW$4, DW_AT_TI_end_column(0x01)
	.dwendentry
	.dwendtag $C$DW$4

	.sect	".text:retain"
	.retain
	.retainrefs
	.global	_EMU_ISR

$C$DW$5	.dwtag  DW_TAG_subprogram
	.dwattr $C$DW$5, DW_AT_name("EMU_ISR")
	.dwattr $C$DW$5, DW_AT_low_pc(_EMU_ISR)
	.dwattr $C$DW$5, DW_AT_high_pc(0x00)
	.dwattr $C$DW$5, DW_AT_TI_symbol_name("_EMU_ISR")
	.dwattr $C$DW$5, DW_AT_external
	.dwattr $C$DW$5, DW_AT_TI_begin_file("C:/ti/controlSUITE/device_support/F2837xD/v210/F2837xD_common/source/F2837xD_DefaultISR.c")
	.dwattr $C$DW$5, DW_AT_TI_begin_line(0x5b)
	.dwattr $C$DW$5, DW_AT_TI_begin_column(0x10)
	.dwattr $C$DW$5, DW_AT_TI_interrupt
	.dwattr $C$DW$5, DW_AT_TI_max_frame_size(-6)
	.dwpsn	file "C:/ti/controlSUITE/device_support/F2837xD/v210/F2837xD_common/source/F2837xD_DefaultISR.c",line 92,column 1,is_stmt,address _EMU_ISR,isa 0

	.dwfde $C$DW$CIE, _EMU_ISR
;----------------------------------------------------------------------
;  91 | interrupt void EMU_ISR(void)                                           
;  93 | //                                                                     
;  94 | // Insert ISR Code here                                                
;  95 | //                                                                     
;  97 | //                                                                     
;  98 | // Next two lines for debug only to halt the processor here            
;  99 | // Remove after inserting ISR Code                                     
; 100 | //                                                                     
;----------------------------------------------------------------------

;***************************************************************
;* FNAME: _EMU_ISR                      FR SIZE:   4           *
;*                                                             *
;* FUNCTION ENVIRONMENT                                        *
;*                                                             *
;* FUNCTION PROPERTIES                                         *
;*                            0 Parameter,  0 Auto,  4 SOE     *
;***************************************************************

_EMU_ISR:
	.dwcfi	cfa_offset, -2
	.dwcfi	save_reg_to_mem, 26, 0
        ASP       ; [CPU_] 
        PUSH      RB                    ; [CPU_] 
	.dwcfi	save_reg_to_mem, 73, 2
	.dwcfi	save_reg_to_mem, 74, 3
	.dwcfi	cfa_offset, -4
        MOV32     *SP++,STF             ; [CPU_] 
	.dwcfi	save_reg_to_mem, 39, 4
	.dwcfi	save_reg_to_mem, 40, 5
	.dwcfi	cfa_offset, -6
        SETFLG    RNDF32=1, RNDF64=1    ; [CPU_] 
        CLRC      PAGE0,OVM             ; [CPU_] 
        CLRC      AMODE                 ; [CPU_] 
	.dwpsn	file "C:/ti/controlSUITE/device_support/F2837xD/v210/F2837xD_common/source/F2837xD_DefaultISR.c",line 101,column 5,is_stmt,isa 0
;----------------------------------------------------------------------
; 101 | asm ("      ESTOP0");                                                  
;----------------------------------------------------------------------
      ESTOP0
$C$L5:    
	.dwpsn	file "C:/ti/controlSUITE/device_support/F2837xD/v210/F2837xD_common/source/F2837xD_DefaultISR.c",line 102,column 5,is_stmt,isa 0
;----------------------------------------------------------------------
; 102 | for(;;);                                                               
;----------------------------------------------------------------------
        B         $C$L5,UNC             ; [CPU_] |102| 
        ; branch occurs ; [] |102| 
	.dwattr $C$DW$5, DW_AT_TI_end_file("C:/ti/controlSUITE/device_support/F2837xD/v210/F2837xD_common/source/F2837xD_DefaultISR.c")
	.dwattr $C$DW$5, DW_AT_TI_end_line(0x67)
	.dwattr $C$DW$5, DW_AT_TI_end_column(0x01)
	.dwendentry
	.dwendtag $C$DW$5

	.sect	".text:retain"
	.retain
	.retainrefs
	.global	_NMI_ISR

$C$DW$6	.dwtag  DW_TAG_subprogram
	.dwattr $C$DW$6, DW_AT_name("NMI_ISR")
	.dwattr $C$DW$6, DW_AT_low_pc(_NMI_ISR)
	.dwattr $C$DW$6, DW_AT_high_pc(0x00)
	.dwattr $C$DW$6, DW_AT_TI_symbol_name("_NMI_ISR")
	.dwattr $C$DW$6, DW_AT_external
	.dwattr $C$DW$6, DW_AT_TI_begin_file("C:/ti/controlSUITE/device_support/F2837xD/v210/F2837xD_common/source/F2837xD_DefaultISR.c")
	.dwattr $C$DW$6, DW_AT_TI_begin_line(0x6c)
	.dwattr $C$DW$6, DW_AT_TI_begin_column(0x10)
	.dwattr $C$DW$6, DW_AT_TI_interrupt
	.dwattr $C$DW$6, DW_AT_TI_max_frame_size(-6)
	.dwpsn	file "C:/ti/controlSUITE/device_support/F2837xD/v210/F2837xD_common/source/F2837xD_DefaultISR.c",line 109,column 1,is_stmt,address _NMI_ISR,isa 0

	.dwfde $C$DW$CIE, _NMI_ISR
;----------------------------------------------------------------------
; 108 | interrupt void NMI_ISR(void)                                           
; 110 | //                                                                     
; 111 | // Insert ISR Code here                                                
; 112 | //                                                                     
; 114 | //                                                                     
; 115 | // Next two lines for debug only to halt the processor here            
; 116 | // Remove after inserting ISR Code                                     
; 117 | //                                                                     
;----------------------------------------------------------------------

;***************************************************************
;* FNAME: _NMI_ISR                      FR SIZE:   4           *
;*                                                             *
;* FUNCTION ENVIRONMENT                                        *
;*                                                             *
;* FUNCTION PROPERTIES                                         *
;*                            0 Parameter,  0 Auto,  4 SOE     *
;***************************************************************

_NMI_ISR:
	.dwcfi	cfa_offset, -2
	.dwcfi	save_reg_to_mem, 26, 0
        ASP       ; [CPU_] 
        PUSH      RB                    ; [CPU_] 
	.dwcfi	save_reg_to_mem, 73, 2
	.dwcfi	save_reg_to_mem, 74, 3
	.dwcfi	cfa_offset, -4
        MOV32     *SP++,STF             ; [CPU_] 
	.dwcfi	save_reg_to_mem, 39, 4
	.dwcfi	save_reg_to_mem, 40, 5
	.dwcfi	cfa_offset, -6
        SETFLG    RNDF32=1, RNDF64=1    ; [CPU_] 
        CLRC      PAGE0,OVM             ; [CPU_] 
        CLRC      AMODE                 ; [CPU_] 
	.dwpsn	file "C:/ti/controlSUITE/device_support/F2837xD/v210/F2837xD_common/source/F2837xD_DefaultISR.c",line 118,column 5,is_stmt,isa 0
;----------------------------------------------------------------------
; 118 | asm ("      ESTOP0");                                                  
;----------------------------------------------------------------------
      ESTOP0
$C$L6:    
	.dwpsn	file "C:/ti/controlSUITE/device_support/F2837xD/v210/F2837xD_common/source/F2837xD_DefaultISR.c",line 119,column 5,is_stmt,isa 0
;----------------------------------------------------------------------
; 119 | for(;;);                                                               
;----------------------------------------------------------------------
        B         $C$L6,UNC             ; [CPU_] |119| 
        ; branch occurs ; [] |119| 
	.dwattr $C$DW$6, DW_AT_TI_end_file("C:/ti/controlSUITE/device_support/F2837xD/v210/F2837xD_common/source/F2837xD_DefaultISR.c")
	.dwattr $C$DW$6, DW_AT_TI_end_line(0x78)
	.dwattr $C$DW$6, DW_AT_TI_end_column(0x01)
	.dwendentry
	.dwendtag $C$DW$6

	.sect	".text:retain"
	.retain
	.retainrefs
	.global	_ILLEGAL_ISR

$C$DW$7	.dwtag  DW_TAG_subprogram
	.dwattr $C$DW$7, DW_AT_name("ILLEGAL_ISR")
	.dwattr $C$DW$7, DW_AT_low_pc(_ILLEGAL_ISR)
	.dwattr $C$DW$7, DW_AT_high_pc(0x00)
	.dwattr $C$DW$7, DW_AT_TI_symbol_name("_ILLEGAL_ISR")
	.dwattr $C$DW$7, DW_AT_external
	.dwattr $C$DW$7, DW_AT_TI_begin_file("C:/ti/controlSUITE/device_support/F2837xD/v210/F2837xD_common/source/F2837xD_DefaultISR.c")
	.dwattr $C$DW$7, DW_AT_TI_begin_line(0x7d)
	.dwattr $C$DW$7, DW_AT_TI_begin_column(0x10)
	.dwattr $C$DW$7, DW_AT_TI_interrupt
	.dwattr $C$DW$7, DW_AT_TI_max_frame_size(-6)
	.dwpsn	file "C:/ti/controlSUITE/device_support/F2837xD/v210/F2837xD_common/source/F2837xD_DefaultISR.c",line 126,column 1,is_stmt,address _ILLEGAL_ISR,isa 0

	.dwfde $C$DW$CIE, _ILLEGAL_ISR
;----------------------------------------------------------------------
; 125 | interrupt void ILLEGAL_ISR(void)                                       
; 127 | //                                                                     
; 128 | // Insert ISR Code here                                                
; 129 | //                                                                     
; 131 | //                                                                     
; 132 | // Next two lines for debug only to halt the processor here            
; 133 | // Remove after inserting ISR Code                                     
; 134 | //                                                                     
;----------------------------------------------------------------------

;***************************************************************
;* FNAME: _ILLEGAL_ISR                  FR SIZE:   4           *
;*                                                             *
;* FUNCTION ENVIRONMENT                                        *
;*                                                             *
;* FUNCTION PROPERTIES                                         *
;*                            0 Parameter,  0 Auto,  4 SOE     *
;***************************************************************

_ILLEGAL_ISR:
	.dwcfi	cfa_offset, -2
	.dwcfi	save_reg_to_mem, 26, 0
        ASP       ; [CPU_] 
        PUSH      RB                    ; [CPU_] 
	.dwcfi	save_reg_to_mem, 73, 2
	.dwcfi	save_reg_to_mem, 74, 3
	.dwcfi	cfa_offset, -4
        MOV32     *SP++,STF             ; [CPU_] 
	.dwcfi	save_reg_to_mem, 39, 4
	.dwcfi	save_reg_to_mem, 40, 5
	.dwcfi	cfa_offset, -6
        SETFLG    RNDF32=1, RNDF64=1    ; [CPU_] 
        CLRC      PAGE0,OVM             ; [CPU_] 
        CLRC      AMODE                 ; [CPU_] 
	.dwpsn	file "C:/ti/controlSUITE/device_support/F2837xD/v210/F2837xD_common/source/F2837xD_DefaultISR.c",line 135,column 5,is_stmt,isa 0
;----------------------------------------------------------------------
; 135 | asm ("      ESTOP0");                                                  
;----------------------------------------------------------------------
      ESTOP0
$C$L7:    
	.dwpsn	file "C:/ti/controlSUITE/device_support/F2837xD/v210/F2837xD_common/source/F2837xD_DefaultISR.c",line 136,column 5,is_stmt,isa 0
;----------------------------------------------------------------------
; 136 | for(;;);                                                               
;----------------------------------------------------------------------
        B         $C$L7,UNC             ; [CPU_] |136| 
        ; branch occurs ; [] |136| 
	.dwattr $C$DW$7, DW_AT_TI_end_file("C:/ti/controlSUITE/device_support/F2837xD/v210/F2837xD_common/source/F2837xD_DefaultISR.c")
	.dwattr $C$DW$7, DW_AT_TI_end_line(0x89)
	.dwattr $C$DW$7, DW_AT_TI_end_column(0x01)
	.dwendentry
	.dwendtag $C$DW$7

	.sect	".text:retain"
	.retain
	.retainrefs
	.global	_USER1_ISR

$C$DW$8	.dwtag  DW_TAG_subprogram
	.dwattr $C$DW$8, DW_AT_name("USER1_ISR")
	.dwattr $C$DW$8, DW_AT_low_pc(_USER1_ISR)
	.dwattr $C$DW$8, DW_AT_high_pc(0x00)
	.dwattr $C$DW$8, DW_AT_TI_symbol_name("_USER1_ISR")
	.dwattr $C$DW$8, DW_AT_external
	.dwattr $C$DW$8, DW_AT_TI_begin_file("C:/ti/controlSUITE/device_support/F2837xD/v210/F2837xD_common/source/F2837xD_DefaultISR.c")
	.dwattr $C$DW$8, DW_AT_TI_begin_line(0x8e)
	.dwattr $C$DW$8, DW_AT_TI_begin_column(0x10)
	.dwattr $C$DW$8, DW_AT_TI_interrupt
	.dwattr $C$DW$8, DW_AT_TI_max_frame_size(-6)
	.dwpsn	file "C:/ti/controlSUITE/device_support/F2837xD/v210/F2837xD_common/source/F2837xD_DefaultISR.c",line 143,column 1,is_stmt,address _USER1_ISR,isa 0

	.dwfde $C$DW$CIE, _USER1_ISR
;----------------------------------------------------------------------
; 142 | interrupt void USER1_ISR(void)                                         
; 144 | //                                                                     
; 145 | // Insert ISR Code here                                                
; 146 | //                                                                     
; 148 | //                                                                     
; 149 | // Next two lines for debug only to halt the processor here            
; 150 | // Remove after inserting ISR Code                                     
; 151 | //                                                                     
;----------------------------------------------------------------------

;***************************************************************
;* FNAME: _USER1_ISR                    FR SIZE:   4           *
;*                                                             *
;* FUNCTION ENVIRONMENT                                        *
;*                                                             *
;* FUNCTION PROPERTIES                                         *
;*                            0 Parameter,  0 Auto,  4 SOE     *
;***************************************************************

_USER1_ISR:
	.dwcfi	cfa_offset, -2
	.dwcfi	save_reg_to_mem, 26, 0
        ASP       ; [CPU_] 
        PUSH      RB                    ; [CPU_] 
	.dwcfi	save_reg_to_mem, 73, 2
	.dwcfi	save_reg_to_mem, 74, 3
	.dwcfi	cfa_offset, -4
        MOV32     *SP++,STF             ; [CPU_] 
	.dwcfi	save_reg_to_mem, 39, 4
	.dwcfi	save_reg_to_mem, 40, 5
	.dwcfi	cfa_offset, -6
        SETFLG    RNDF32=1, RNDF64=1    ; [CPU_] 
        CLRC      PAGE0,OVM             ; [CPU_] 
        CLRC      AMODE                 ; [CPU_] 
	.dwpsn	file "C:/ti/controlSUITE/device_support/F2837xD/v210/F2837xD_common/source/F2837xD_DefaultISR.c",line 152,column 5,is_stmt,isa 0
;----------------------------------------------------------------------
; 152 | asm ("      ESTOP0");                                                  
;----------------------------------------------------------------------
      ESTOP0
$C$L8:    
	.dwpsn	file "C:/ti/controlSUITE/device_support/F2837xD/v210/F2837xD_common/source/F2837xD_DefaultISR.c",line 153,column 5,is_stmt,isa 0
;----------------------------------------------------------------------
; 153 | for(;;);                                                               
;----------------------------------------------------------------------
        B         $C$L8,UNC             ; [CPU_] |153| 
        ; branch occurs ; [] |153| 
	.dwattr $C$DW$8, DW_AT_TI_end_file("C:/ti/controlSUITE/device_support/F2837xD/v210/F2837xD_common/source/F2837xD_DefaultISR.c")
	.dwattr $C$DW$8, DW_AT_TI_end_line(0x9a)
	.dwattr $C$DW$8, DW_AT_TI_end_column(0x01)
	.dwendentry
	.dwendtag $C$DW$8

	.sect	".text:retain"
	.retain
	.retainrefs
	.global	_USER2_ISR

$C$DW$9	.dwtag  DW_TAG_subprogram
	.dwattr $C$DW$9, DW_AT_name("USER2_ISR")
	.dwattr $C$DW$9, DW_AT_low_pc(_USER2_ISR)
	.dwattr $C$DW$9, DW_AT_high_pc(0x00)
	.dwattr $C$DW$9, DW_AT_TI_symbol_name("_USER2_ISR")
	.dwattr $C$DW$9, DW_AT_external
	.dwattr $C$DW$9, DW_AT_TI_begin_file("C:/ti/controlSUITE/device_support/F2837xD/v210/F2837xD_common/source/F2837xD_DefaultISR.c")
	.dwattr $C$DW$9, DW_AT_TI_begin_line(0x9f)
	.dwattr $C$DW$9, DW_AT_TI_begin_column(0x10)
	.dwattr $C$DW$9, DW_AT_TI_interrupt
	.dwattr $C$DW$9, DW_AT_TI_max_frame_size(-6)
	.dwpsn	file "C:/ti/controlSUITE/device_support/F2837xD/v210/F2837xD_common/source/F2837xD_DefaultISR.c",line 160,column 1,is_stmt,address _USER2_ISR,isa 0

	.dwfde $C$DW$CIE, _USER2_ISR
;----------------------------------------------------------------------
; 159 | interrupt void USER2_ISR(void)                                         
; 161 | //                                                                     
; 162 | // Insert ISR Code here                                                
; 163 | //                                                                     
; 165 | //                                                                     
; 166 | // Next two lines for debug only to halt the processor here            
; 167 | // Remove after inserting ISR Code                                     
; 168 | //                                                                     
;----------------------------------------------------------------------

;***************************************************************
;* FNAME: _USER2_ISR                    FR SIZE:   4           *
;*                                                             *
;* FUNCTION ENVIRONMENT                                        *
;*                                                             *
;* FUNCTION PROPERTIES                                         *
;*                            0 Parameter,  0 Auto,  4 SOE     *
;***************************************************************

_USER2_ISR:
	.dwcfi	cfa_offset, -2
	.dwcfi	save_reg_to_mem, 26, 0
        ASP       ; [CPU_] 
        PUSH      RB                    ; [CPU_] 
	.dwcfi	save_reg_to_mem, 73, 2
	.dwcfi	save_reg_to_mem, 74, 3
	.dwcfi	cfa_offset, -4
        MOV32     *SP++,STF             ; [CPU_] 
	.dwcfi	save_reg_to_mem, 39, 4
	.dwcfi	save_reg_to_mem, 40, 5
	.dwcfi	cfa_offset, -6
        SETFLG    RNDF32=1, RNDF64=1    ; [CPU_] 
        CLRC      PAGE0,OVM             ; [CPU_] 
        CLRC      AMODE                 ; [CPU_] 
	.dwpsn	file "C:/ti/controlSUITE/device_support/F2837xD/v210/F2837xD_common/source/F2837xD_DefaultISR.c",line 169,column 5,is_stmt,isa 0
;----------------------------------------------------------------------
; 169 | asm ("      ESTOP0");                                                  
;----------------------------------------------------------------------
      ESTOP0
$C$L9:    
	.dwpsn	file "C:/ti/controlSUITE/device_support/F2837xD/v210/F2837xD_common/source/F2837xD_DefaultISR.c",line 170,column 5,is_stmt,isa 0
;----------------------------------------------------------------------
; 170 | for(;;);                                                               
;----------------------------------------------------------------------
        B         $C$L9,UNC             ; [CPU_] |170| 
        ; branch occurs ; [] |170| 
	.dwattr $C$DW$9, DW_AT_TI_end_file("C:/ti/controlSUITE/device_support/F2837xD/v210/F2837xD_common/source/F2837xD_DefaultISR.c")
	.dwattr $C$DW$9, DW_AT_TI_end_line(0xab)
	.dwattr $C$DW$9, DW_AT_TI_end_column(0x01)
	.dwendentry
	.dwendtag $C$DW$9

	.sect	".text:retain"
	.retain
	.retainrefs
	.global	_USER3_ISR

$C$DW$10	.dwtag  DW_TAG_subprogram
	.dwattr $C$DW$10, DW_AT_name("USER3_ISR")
	.dwattr $C$DW$10, DW_AT_low_pc(_USER3_ISR)
	.dwattr $C$DW$10, DW_AT_high_pc(0x00)
	.dwattr $C$DW$10, DW_AT_TI_symbol_name("_USER3_ISR")
	.dwattr $C$DW$10, DW_AT_external
	.dwattr $C$DW$10, DW_AT_TI_begin_file("C:/ti/controlSUITE/device_support/F2837xD/v210/F2837xD_common/source/F2837xD_DefaultISR.c")
	.dwattr $C$DW$10, DW_AT_TI_begin_line(0xb0)
	.dwattr $C$DW$10, DW_AT_TI_begin_column(0x10)
	.dwattr $C$DW$10, DW_AT_TI_interrupt
	.dwattr $C$DW$10, DW_AT_TI_max_frame_size(-6)
	.dwpsn	file "C:/ti/controlSUITE/device_support/F2837xD/v210/F2837xD_common/source/F2837xD_DefaultISR.c",line 177,column 1,is_stmt,address _USER3_ISR,isa 0

	.dwfde $C$DW$CIE, _USER3_ISR
;----------------------------------------------------------------------
; 176 | interrupt void USER3_ISR(void)                                         
; 178 | //                                                                     
; 179 | // Insert ISR Code here                                                
; 180 | //                                                                     
; 182 | //                                                                     
; 183 | // Next two lines for debug only to halt the processor here            
; 184 | // Remove after inserting ISR Code                                     
; 185 | //                                                                     
;----------------------------------------------------------------------

;***************************************************************
;* FNAME: _USER3_ISR                    FR SIZE:   4           *
;*                                                             *
;* FUNCTION ENVIRONMENT                                        *
;*                                                             *
;* FUNCTION PROPERTIES                                         *
;*                            0 Parameter,  0 Auto,  4 SOE     *
;***************************************************************

_USER3_ISR:
	.dwcfi	cfa_offset, -2
	.dwcfi	save_reg_to_mem, 26, 0
        ASP       ; [CPU_] 
        PUSH      RB                    ; [CPU_] 
	.dwcfi	save_reg_to_mem, 73, 2
	.dwcfi	save_reg_to_mem, 74, 3
	.dwcfi	cfa_offset, -4
        MOV32     *SP++,STF             ; [CPU_] 
	.dwcfi	save_reg_to_mem, 39, 4
	.dwcfi	save_reg_to_mem, 40, 5
	.dwcfi	cfa_offset, -6
        SETFLG    RNDF32=1, RNDF64=1    ; [CPU_] 
        CLRC      PAGE0,OVM             ; [CPU_] 
        CLRC      AMODE                 ; [CPU_] 
	.dwpsn	file "C:/ti/controlSUITE/device_support/F2837xD/v210/F2837xD_common/source/F2837xD_DefaultISR.c",line 186,column 5,is_stmt,isa 0
;----------------------------------------------------------------------
; 186 | asm ("      ESTOP0");                                                  
;----------------------------------------------------------------------
      ESTOP0
$C$L10:    
	.dwpsn	file "C:/ti/controlSUITE/device_support/F2837xD/v210/F2837xD_common/source/F2837xD_DefaultISR.c",line 187,column 5,is_stmt,isa 0
;----------------------------------------------------------------------
; 187 | for(;;);                                                               
;----------------------------------------------------------------------
        B         $C$L10,UNC            ; [CPU_] |187| 
        ; branch occurs ; [] |187| 
	.dwattr $C$DW$10, DW_AT_TI_end_file("C:/ti/controlSUITE/device_support/F2837xD/v210/F2837xD_common/source/F2837xD_DefaultISR.c")
	.dwattr $C$DW$10, DW_AT_TI_end_line(0xbc)
	.dwattr $C$DW$10, DW_AT_TI_end_column(0x01)
	.dwendentry
	.dwendtag $C$DW$10

	.sect	".text:retain"
	.retain
	.retainrefs
	.global	_USER4_ISR

$C$DW$11	.dwtag  DW_TAG_subprogram
	.dwattr $C$DW$11, DW_AT_name("USER4_ISR")
	.dwattr $C$DW$11, DW_AT_low_pc(_USER4_ISR)
	.dwattr $C$DW$11, DW_AT_high_pc(0x00)
	.dwattr $C$DW$11, DW_AT_TI_symbol_name("_USER4_ISR")
	.dwattr $C$DW$11, DW_AT_external
	.dwattr $C$DW$11, DW_AT_TI_begin_file("C:/ti/controlSUITE/device_support/F2837xD/v210/F2837xD_common/source/F2837xD_DefaultISR.c")
	.dwattr $C$DW$11, DW_AT_TI_begin_line(0xc1)
	.dwattr $C$DW$11, DW_AT_TI_begin_column(0x10)
	.dwattr $C$DW$11, DW_AT_TI_interrupt
	.dwattr $C$DW$11, DW_AT_TI_max_frame_size(-6)
	.dwpsn	file "C:/ti/controlSUITE/device_support/F2837xD/v210/F2837xD_common/source/F2837xD_DefaultISR.c",line 194,column 1,is_stmt,address _USER4_ISR,isa 0

	.dwfde $C$DW$CIE, _USER4_ISR
;----------------------------------------------------------------------
; 193 | interrupt void USER4_ISR(void)                                         
; 195 | //                                                                     
; 196 | // Insert ISR Code here                                                
; 197 | //                                                                     
; 199 | //                                                                     
; 200 | // Next two lines for debug only to halt the processor here            
; 201 | // Remove after inserting ISR Code                                     
; 202 | //                                                                     
;----------------------------------------------------------------------

;***************************************************************
;* FNAME: _USER4_ISR                    FR SIZE:   4           *
;*                                                             *
;* FUNCTION ENVIRONMENT                                        *
;*                                                             *
;* FUNCTION PROPERTIES                                         *
;*                            0 Parameter,  0 Auto,  4 SOE     *
;***************************************************************

_USER4_ISR:
	.dwcfi	cfa_offset, -2
	.dwcfi	save_reg_to_mem, 26, 0
        ASP       ; [CPU_] 
        PUSH      RB                    ; [CPU_] 
	.dwcfi	save_reg_to_mem, 73, 2
	.dwcfi	save_reg_to_mem, 74, 3
	.dwcfi	cfa_offset, -4
        MOV32     *SP++,STF             ; [CPU_] 
	.dwcfi	save_reg_to_mem, 39, 4
	.dwcfi	save_reg_to_mem, 40, 5
	.dwcfi	cfa_offset, -6
        SETFLG    RNDF32=1, RNDF64=1    ; [CPU_] 
        CLRC      PAGE0,OVM             ; [CPU_] 
        CLRC      AMODE                 ; [CPU_] 
	.dwpsn	file "C:/ti/controlSUITE/device_support/F2837xD/v210/F2837xD_common/source/F2837xD_DefaultISR.c",line 203,column 5,is_stmt,isa 0
;----------------------------------------------------------------------
; 203 | asm ("      ESTOP0");                                                  
;----------------------------------------------------------------------
      ESTOP0
$C$L11:    
	.dwpsn	file "C:/ti/controlSUITE/device_support/F2837xD/v210/F2837xD_common/source/F2837xD_DefaultISR.c",line 204,column 5,is_stmt,isa 0
;----------------------------------------------------------------------
; 204 | for(;;);                                                               
;----------------------------------------------------------------------
        B         $C$L11,UNC            ; [CPU_] |204| 
        ; branch occurs ; [] |204| 
	.dwattr $C$DW$11, DW_AT_TI_end_file("C:/ti/controlSUITE/device_support/F2837xD/v210/F2837xD_common/source/F2837xD_DefaultISR.c")
	.dwattr $C$DW$11, DW_AT_TI_end_line(0xcd)
	.dwattr $C$DW$11, DW_AT_TI_end_column(0x01)
	.dwendentry
	.dwendtag $C$DW$11

	.sect	".text:retain"
	.retain
	.retainrefs
	.global	_USER5_ISR

$C$DW$12	.dwtag  DW_TAG_subprogram
	.dwattr $C$DW$12, DW_AT_name("USER5_ISR")
	.dwattr $C$DW$12, DW_AT_low_pc(_USER5_ISR)
	.dwattr $C$DW$12, DW_AT_high_pc(0x00)
	.dwattr $C$DW$12, DW_AT_TI_symbol_name("_USER5_ISR")
	.dwattr $C$DW$12, DW_AT_external
	.dwattr $C$DW$12, DW_AT_TI_begin_file("C:/ti/controlSUITE/device_support/F2837xD/v210/F2837xD_common/source/F2837xD_DefaultISR.c")
	.dwattr $C$DW$12, DW_AT_TI_begin_line(0xd2)
	.dwattr $C$DW$12, DW_AT_TI_begin_column(0x10)
	.dwattr $C$DW$12, DW_AT_TI_interrupt
	.dwattr $C$DW$12, DW_AT_TI_max_frame_size(-6)
	.dwpsn	file "C:/ti/controlSUITE/device_support/F2837xD/v210/F2837xD_common/source/F2837xD_DefaultISR.c",line 211,column 1,is_stmt,address _USER5_ISR,isa 0

	.dwfde $C$DW$CIE, _USER5_ISR
;----------------------------------------------------------------------
; 210 | interrupt void USER5_ISR(void)                                         
; 212 | //                                                                     
; 213 | // Insert ISR Code here                                                
; 214 | //                                                                     
; 216 | //                                                                     
; 217 | // Next two lines for debug only to halt the processor here            
; 218 | // Remove after inserting ISR Code                                     
; 219 | //                                                                     
;----------------------------------------------------------------------

;***************************************************************
;* FNAME: _USER5_ISR                    FR SIZE:   4           *
;*                                                             *
;* FUNCTION ENVIRONMENT                                        *
;*                                                             *
;* FUNCTION PROPERTIES                                         *
;*                            0 Parameter,  0 Auto,  4 SOE     *
;***************************************************************

_USER5_ISR:
	.dwcfi	cfa_offset, -2
	.dwcfi	save_reg_to_mem, 26, 0
        ASP       ; [CPU_] 
        PUSH      RB                    ; [CPU_] 
	.dwcfi	save_reg_to_mem, 73, 2
	.dwcfi	save_reg_to_mem, 74, 3
	.dwcfi	cfa_offset, -4
        MOV32     *SP++,STF             ; [CPU_] 
	.dwcfi	save_reg_to_mem, 39, 4
	.dwcfi	save_reg_to_mem, 40, 5
	.dwcfi	cfa_offset, -6
        SETFLG    RNDF32=1, RNDF64=1    ; [CPU_] 
        CLRC      PAGE0,OVM             ; [CPU_] 
        CLRC      AMODE                 ; [CPU_] 
	.dwpsn	file "C:/ti/controlSUITE/device_support/F2837xD/v210/F2837xD_common/source/F2837xD_DefaultISR.c",line 220,column 5,is_stmt,isa 0
;----------------------------------------------------------------------
; 220 | asm ("      ESTOP0");                                                  
;----------------------------------------------------------------------
      ESTOP0
$C$L12:    
	.dwpsn	file "C:/ti/controlSUITE/device_support/F2837xD/v210/F2837xD_common/source/F2837xD_DefaultISR.c",line 221,column 5,is_stmt,isa 0
;----------------------------------------------------------------------
; 221 | for(;;);                                                               
;----------------------------------------------------------------------
        B         $C$L12,UNC            ; [CPU_] |221| 
        ; branch occurs ; [] |221| 
	.dwattr $C$DW$12, DW_AT_TI_end_file("C:/ti/controlSUITE/device_support/F2837xD/v210/F2837xD_common/source/F2837xD_DefaultISR.c")
	.dwattr $C$DW$12, DW_AT_TI_end_line(0xde)
	.dwattr $C$DW$12, DW_AT_TI_end_column(0x01)
	.dwendentry
	.dwendtag $C$DW$12

	.sect	".text:retain"
	.retain
	.retainrefs
	.global	_USER6_ISR

$C$DW$13	.dwtag  DW_TAG_subprogram
	.dwattr $C$DW$13, DW_AT_name("USER6_ISR")
	.dwattr $C$DW$13, DW_AT_low_pc(_USER6_ISR)
	.dwattr $C$DW$13, DW_AT_high_pc(0x00)
	.dwattr $C$DW$13, DW_AT_TI_symbol_name("_USER6_ISR")
	.dwattr $C$DW$13, DW_AT_external
	.dwattr $C$DW$13, DW_AT_TI_begin_file("C:/ti/controlSUITE/device_support/F2837xD/v210/F2837xD_common/source/F2837xD_DefaultISR.c")
	.dwattr $C$DW$13, DW_AT_TI_begin_line(0xe3)
	.dwattr $C$DW$13, DW_AT_TI_begin_column(0x10)
	.dwattr $C$DW$13, DW_AT_TI_interrupt
	.dwattr $C$DW$13, DW_AT_TI_max_frame_size(-6)
	.dwpsn	file "C:/ti/controlSUITE/device_support/F2837xD/v210/F2837xD_common/source/F2837xD_DefaultISR.c",line 228,column 1,is_stmt,address _USER6_ISR,isa 0

	.dwfde $C$DW$CIE, _USER6_ISR
;----------------------------------------------------------------------
; 227 | interrupt void USER6_ISR(void)                                         
; 229 | //                                                                     
; 230 | // Insert ISR Code here                                                
; 231 | //                                                                     
; 233 | //                                                                     
; 234 | // Next two lines for debug only to halt the processor here            
; 235 | // Remove after inserting ISR Code                                     
; 236 | //                                                                     
;----------------------------------------------------------------------

;***************************************************************
;* FNAME: _USER6_ISR                    FR SIZE:   4           *
;*                                                             *
;* FUNCTION ENVIRONMENT                                        *
;*                                                             *
;* FUNCTION PROPERTIES                                         *
;*                            0 Parameter,  0 Auto,  4 SOE     *
;***************************************************************

_USER6_ISR:
	.dwcfi	cfa_offset, -2
	.dwcfi	save_reg_to_mem, 26, 0
        ASP       ; [CPU_] 
        PUSH      RB                    ; [CPU_] 
	.dwcfi	save_reg_to_mem, 73, 2
	.dwcfi	save_reg_to_mem, 74, 3
	.dwcfi	cfa_offset, -4
        MOV32     *SP++,STF             ; [CPU_] 
	.dwcfi	save_reg_to_mem, 39, 4
	.dwcfi	save_reg_to_mem, 40, 5
	.dwcfi	cfa_offset, -6
        SETFLG    RNDF32=1, RNDF64=1    ; [CPU_] 
        CLRC      PAGE0,OVM             ; [CPU_] 
        CLRC      AMODE                 ; [CPU_] 
	.dwpsn	file "C:/ti/controlSUITE/device_support/F2837xD/v210/F2837xD_common/source/F2837xD_DefaultISR.c",line 237,column 5,is_stmt,isa 0
;----------------------------------------------------------------------
; 237 | asm ("      ESTOP0");                                                  
;----------------------------------------------------------------------
      ESTOP0
$C$L13:    
	.dwpsn	file "C:/ti/controlSUITE/device_support/F2837xD/v210/F2837xD_common/source/F2837xD_DefaultISR.c",line 238,column 5,is_stmt,isa 0
;----------------------------------------------------------------------
; 238 | for(;;);                                                               
;----------------------------------------------------------------------
        B         $C$L13,UNC            ; [CPU_] |238| 
        ; branch occurs ; [] |238| 
	.dwattr $C$DW$13, DW_AT_TI_end_file("C:/ti/controlSUITE/device_support/F2837xD/v210/F2837xD_common/source/F2837xD_DefaultISR.c")
	.dwattr $C$DW$13, DW_AT_TI_end_line(0xef)
	.dwattr $C$DW$13, DW_AT_TI_end_column(0x01)
	.dwendentry
	.dwendtag $C$DW$13

	.sect	".text:retain"
	.retain
	.retainrefs
	.global	_USER7_ISR

$C$DW$14	.dwtag  DW_TAG_subprogram
	.dwattr $C$DW$14, DW_AT_name("USER7_ISR")
	.dwattr $C$DW$14, DW_AT_low_pc(_USER7_ISR)
	.dwattr $C$DW$14, DW_AT_high_pc(0x00)
	.dwattr $C$DW$14, DW_AT_TI_symbol_name("_USER7_ISR")
	.dwattr $C$DW$14, DW_AT_external
	.dwattr $C$DW$14, DW_AT_TI_begin_file("C:/ti/controlSUITE/device_support/F2837xD/v210/F2837xD_common/source/F2837xD_DefaultISR.c")
	.dwattr $C$DW$14, DW_AT_TI_begin_line(0xf4)
	.dwattr $C$DW$14, DW_AT_TI_begin_column(0x10)
	.dwattr $C$DW$14, DW_AT_TI_interrupt
	.dwattr $C$DW$14, DW_AT_TI_max_frame_size(-6)
	.dwpsn	file "C:/ti/controlSUITE/device_support/F2837xD/v210/F2837xD_common/source/F2837xD_DefaultISR.c",line 245,column 1,is_stmt,address _USER7_ISR,isa 0

	.dwfde $C$DW$CIE, _USER7_ISR
;----------------------------------------------------------------------
; 244 | interrupt void USER7_ISR(void)                                         
; 246 | //                                                                     
; 247 | // Insert ISR Code here                                                
; 248 | //                                                                     
; 250 | //                                                                     
; 251 | // Next two lines for debug only to halt the processor here            
; 252 | // Remove after inserting ISR Code                                     
; 253 | //                                                                     
;----------------------------------------------------------------------

;***************************************************************
;* FNAME: _USER7_ISR                    FR SIZE:   4           *
;*                                                             *
;* FUNCTION ENVIRONMENT                                        *
;*                                                             *
;* FUNCTION PROPERTIES                                         *
;*                            0 Parameter,  0 Auto,  4 SOE     *
;***************************************************************

_USER7_ISR:
	.dwcfi	cfa_offset, -2
	.dwcfi	save_reg_to_mem, 26, 0
        ASP       ; [CPU_] 
        PUSH      RB                    ; [CPU_] 
	.dwcfi	save_reg_to_mem, 73, 2
	.dwcfi	save_reg_to_mem, 74, 3
	.dwcfi	cfa_offset, -4
        MOV32     *SP++,STF             ; [CPU_] 
	.dwcfi	save_reg_to_mem, 39, 4
	.dwcfi	save_reg_to_mem, 40, 5
	.dwcfi	cfa_offset, -6
        SETFLG    RNDF32=1, RNDF64=1    ; [CPU_] 
        CLRC      PAGE0,OVM             ; [CPU_] 
        CLRC      AMODE                 ; [CPU_] 
	.dwpsn	file "C:/ti/controlSUITE/device_support/F2837xD/v210/F2837xD_common/source/F2837xD_DefaultISR.c",line 254,column 5,is_stmt,isa 0
;----------------------------------------------------------------------
; 254 | asm ("      ESTOP0");                                                  
;----------------------------------------------------------------------
      ESTOP0
$C$L14:    
	.dwpsn	file "C:/ti/controlSUITE/device_support/F2837xD/v210/F2837xD_common/source/F2837xD_DefaultISR.c",line 255,column 5,is_stmt,isa 0
;----------------------------------------------------------------------
; 255 | for(;;);                                                               
;----------------------------------------------------------------------
        B         $C$L14,UNC            ; [CPU_] |255| 
        ; branch occurs ; [] |255| 
	.dwattr $C$DW$14, DW_AT_TI_end_file("C:/ti/controlSUITE/device_support/F2837xD/v210/F2837xD_common/source/F2837xD_DefaultISR.c")
	.dwattr $C$DW$14, DW_AT_TI_end_line(0x100)
	.dwattr $C$DW$14, DW_AT_TI_end_column(0x01)
	.dwendentry
	.dwendtag $C$DW$14

	.sect	".text:retain"
	.retain
	.retainrefs
	.global	_USER8_ISR

$C$DW$15	.dwtag  DW_TAG_subprogram
	.dwattr $C$DW$15, DW_AT_name("USER8_ISR")
	.dwattr $C$DW$15, DW_AT_low_pc(_USER8_ISR)
	.dwattr $C$DW$15, DW_AT_high_pc(0x00)
	.dwattr $C$DW$15, DW_AT_TI_symbol_name("_USER8_ISR")
	.dwattr $C$DW$15, DW_AT_external
	.dwattr $C$DW$15, DW_AT_TI_begin_file("C:/ti/controlSUITE/device_support/F2837xD/v210/F2837xD_common/source/F2837xD_DefaultISR.c")
	.dwattr $C$DW$15, DW_AT_TI_begin_line(0x105)
	.dwattr $C$DW$15, DW_AT_TI_begin_column(0x10)
	.dwattr $C$DW$15, DW_AT_TI_interrupt
	.dwattr $C$DW$15, DW_AT_TI_max_frame_size(-6)
	.dwpsn	file "C:/ti/controlSUITE/device_support/F2837xD/v210/F2837xD_common/source/F2837xD_DefaultISR.c",line 262,column 1,is_stmt,address _USER8_ISR,isa 0

	.dwfde $C$DW$CIE, _USER8_ISR
;----------------------------------------------------------------------
; 261 | interrupt void USER8_ISR(void)                                         
; 263 | //                                                                     
; 264 | // Insert ISR Code here                                                
; 265 | //                                                                     
; 267 | //                                                                     
; 268 | // Next two lines for debug only to halt the processor here            
; 269 | // Remove after inserting ISR Code                                     
; 270 | //                                                                     
;----------------------------------------------------------------------

;***************************************************************
;* FNAME: _USER8_ISR                    FR SIZE:   4           *
;*                                                             *
;* FUNCTION ENVIRONMENT                                        *
;*                                                             *
;* FUNCTION PROPERTIES                                         *
;*                            0 Parameter,  0 Auto,  4 SOE     *
;***************************************************************

_USER8_ISR:
	.dwcfi	cfa_offset, -2
	.dwcfi	save_reg_to_mem, 26, 0
        ASP       ; [CPU_] 
        PUSH      RB                    ; [CPU_] 
	.dwcfi	save_reg_to_mem, 73, 2
	.dwcfi	save_reg_to_mem, 74, 3
	.dwcfi	cfa_offset, -4
        MOV32     *SP++,STF             ; [CPU_] 
	.dwcfi	save_reg_to_mem, 39, 4
	.dwcfi	save_reg_to_mem, 40, 5
	.dwcfi	cfa_offset, -6
        SETFLG    RNDF32=1, RNDF64=1    ; [CPU_] 
        CLRC      PAGE0,OVM             ; [CPU_] 
        CLRC      AMODE                 ; [CPU_] 
	.dwpsn	file "C:/ti/controlSUITE/device_support/F2837xD/v210/F2837xD_common/source/F2837xD_DefaultISR.c",line 271,column 5,is_stmt,isa 0
;----------------------------------------------------------------------
; 271 | asm ("      ESTOP0");                                                  
;----------------------------------------------------------------------
      ESTOP0
$C$L15:    
	.dwpsn	file "C:/ti/controlSUITE/device_support/F2837xD/v210/F2837xD_common/source/F2837xD_DefaultISR.c",line 272,column 5,is_stmt,isa 0
;----------------------------------------------------------------------
; 272 | for(;;);                                                               
;----------------------------------------------------------------------
        B         $C$L15,UNC            ; [CPU_] |272| 
        ; branch occurs ; [] |272| 
	.dwattr $C$DW$15, DW_AT_TI_end_file("C:/ti/controlSUITE/device_support/F2837xD/v210/F2837xD_common/source/F2837xD_DefaultISR.c")
	.dwattr $C$DW$15, DW_AT_TI_end_line(0x111)
	.dwattr $C$DW$15, DW_AT_TI_end_column(0x01)
	.dwendentry
	.dwendtag $C$DW$15

	.sect	".text:retain"
	.retain
	.retainrefs
	.global	_USER9_ISR

$C$DW$16	.dwtag  DW_TAG_subprogram
	.dwattr $C$DW$16, DW_AT_name("USER9_ISR")
	.dwattr $C$DW$16, DW_AT_low_pc(_USER9_ISR)
	.dwattr $C$DW$16, DW_AT_high_pc(0x00)
	.dwattr $C$DW$16, DW_AT_TI_symbol_name("_USER9_ISR")
	.dwattr $C$DW$16, DW_AT_external
	.dwattr $C$DW$16, DW_AT_TI_begin_file("C:/ti/controlSUITE/device_support/F2837xD/v210/F2837xD_common/source/F2837xD_DefaultISR.c")
	.dwattr $C$DW$16, DW_AT_TI_begin_line(0x116)
	.dwattr $C$DW$16, DW_AT_TI_begin_column(0x10)
	.dwattr $C$DW$16, DW_AT_TI_interrupt
	.dwattr $C$DW$16, DW_AT_TI_max_frame_size(-6)
	.dwpsn	file "C:/ti/controlSUITE/device_support/F2837xD/v210/F2837xD_common/source/F2837xD_DefaultISR.c",line 279,column 1,is_stmt,address _USER9_ISR,isa 0

	.dwfde $C$DW$CIE, _USER9_ISR
;----------------------------------------------------------------------
; 278 | interrupt void USER9_ISR(void)                                         
; 280 | //                                                                     
; 281 | // Insert ISR Code here                                                
; 282 | //                                                                     
; 284 | //                                                                     
; 285 | // Next two lines for debug only to halt the processor here            
; 286 | // Remove after inserting ISR Code                                     
; 287 | //                                                                     
;----------------------------------------------------------------------

;***************************************************************
;* FNAME: _USER9_ISR                    FR SIZE:   4           *
;*                                                             *
;* FUNCTION ENVIRONMENT                                        *
;*                                                             *
;* FUNCTION PROPERTIES                                         *
;*                            0 Parameter,  0 Auto,  4 SOE     *
;***************************************************************

_USER9_ISR:
	.dwcfi	cfa_offset, -2
	.dwcfi	save_reg_to_mem, 26, 0
        ASP       ; [CPU_] 
        PUSH      RB                    ; [CPU_] 
	.dwcfi	save_reg_to_mem, 73, 2
	.dwcfi	save_reg_to_mem, 74, 3
	.dwcfi	cfa_offset, -4
        MOV32     *SP++,STF             ; [CPU_] 
	.dwcfi	save_reg_to_mem, 39, 4
	.dwcfi	save_reg_to_mem, 40, 5
	.dwcfi	cfa_offset, -6
        SETFLG    RNDF32=1, RNDF64=1    ; [CPU_] 
        CLRC      PAGE0,OVM             ; [CPU_] 
        CLRC      AMODE                 ; [CPU_] 
	.dwpsn	file "C:/ti/controlSUITE/device_support/F2837xD/v210/F2837xD_common/source/F2837xD_DefaultISR.c",line 288,column 5,is_stmt,isa 0
;----------------------------------------------------------------------
; 288 | asm ("      ESTOP0");                                                  
;----------------------------------------------------------------------
      ESTOP0
$C$L16:    
	.dwpsn	file "C:/ti/controlSUITE/device_support/F2837xD/v210/F2837xD_common/source/F2837xD_DefaultISR.c",line 289,column 5,is_stmt,isa 0
;----------------------------------------------------------------------
; 289 | for(;;);                                                               
;----------------------------------------------------------------------
        B         $C$L16,UNC            ; [CPU_] |289| 
        ; branch occurs ; [] |289| 
	.dwattr $C$DW$16, DW_AT_TI_end_file("C:/ti/controlSUITE/device_support/F2837xD/v210/F2837xD_common/source/F2837xD_DefaultISR.c")
	.dwattr $C$DW$16, DW_AT_TI_end_line(0x122)
	.dwattr $C$DW$16, DW_AT_TI_end_column(0x01)
	.dwendentry
	.dwendtag $C$DW$16

	.sect	".text:retain"
	.retain
	.retainrefs
	.global	_USER10_ISR

$C$DW$17	.dwtag  DW_TAG_subprogram
	.dwattr $C$DW$17, DW_AT_name("USER10_ISR")
	.dwattr $C$DW$17, DW_AT_low_pc(_USER10_ISR)
	.dwattr $C$DW$17, DW_AT_high_pc(0x00)
	.dwattr $C$DW$17, DW_AT_TI_symbol_name("_USER10_ISR")
	.dwattr $C$DW$17, DW_AT_external
	.dwattr $C$DW$17, DW_AT_TI_begin_file("C:/ti/controlSUITE/device_support/F2837xD/v210/F2837xD_common/source/F2837xD_DefaultISR.c")
	.dwattr $C$DW$17, DW_AT_TI_begin_line(0x127)
	.dwattr $C$DW$17, DW_AT_TI_begin_column(0x10)
	.dwattr $C$DW$17, DW_AT_TI_interrupt
	.dwattr $C$DW$17, DW_AT_TI_max_frame_size(-6)
	.dwpsn	file "C:/ti/controlSUITE/device_support/F2837xD/v210/F2837xD_common/source/F2837xD_DefaultISR.c",line 296,column 1,is_stmt,address _USER10_ISR,isa 0

	.dwfde $C$DW$CIE, _USER10_ISR
;----------------------------------------------------------------------
; 295 | interrupt void USER10_ISR(void)                                        
; 297 | //                                                                     
; 298 | // Insert ISR Code here                                                
; 299 | //                                                                     
; 301 | //                                                                     
; 302 | // Next two lines for debug only to halt the processor here            
; 303 | // Remove after inserting ISR Code                                     
; 304 | //                                                                     
;----------------------------------------------------------------------

;***************************************************************
;* FNAME: _USER10_ISR                   FR SIZE:   4           *
;*                                                             *
;* FUNCTION ENVIRONMENT                                        *
;*                                                             *
;* FUNCTION PROPERTIES                                         *
;*                            0 Parameter,  0 Auto,  4 SOE     *
;***************************************************************

_USER10_ISR:
	.dwcfi	cfa_offset, -2
	.dwcfi	save_reg_to_mem, 26, 0
        ASP       ; [CPU_] 
        PUSH      RB                    ; [CPU_] 
	.dwcfi	save_reg_to_mem, 73, 2
	.dwcfi	save_reg_to_mem, 74, 3
	.dwcfi	cfa_offset, -4
        MOV32     *SP++,STF             ; [CPU_] 
	.dwcfi	save_reg_to_mem, 39, 4
	.dwcfi	save_reg_to_mem, 40, 5
	.dwcfi	cfa_offset, -6
        SETFLG    RNDF32=1, RNDF64=1    ; [CPU_] 
        CLRC      PAGE0,OVM             ; [CPU_] 
        CLRC      AMODE                 ; [CPU_] 
	.dwpsn	file "C:/ti/controlSUITE/device_support/F2837xD/v210/F2837xD_common/source/F2837xD_DefaultISR.c",line 305,column 5,is_stmt,isa 0
;----------------------------------------------------------------------
; 305 | asm ("      ESTOP0");                                                  
;----------------------------------------------------------------------
      ESTOP0
$C$L17:    
	.dwpsn	file "C:/ti/controlSUITE/device_support/F2837xD/v210/F2837xD_common/source/F2837xD_DefaultISR.c",line 306,column 5,is_stmt,isa 0
;----------------------------------------------------------------------
; 306 | for(;;);                                                               
;----------------------------------------------------------------------
        B         $C$L17,UNC            ; [CPU_] |306| 
        ; branch occurs ; [] |306| 
	.dwattr $C$DW$17, DW_AT_TI_end_file("C:/ti/controlSUITE/device_support/F2837xD/v210/F2837xD_common/source/F2837xD_DefaultISR.c")
	.dwattr $C$DW$17, DW_AT_TI_end_line(0x133)
	.dwattr $C$DW$17, DW_AT_TI_end_column(0x01)
	.dwendentry
	.dwendtag $C$DW$17

	.sect	".text:retain"
	.retain
	.retainrefs
	.global	_USER11_ISR

$C$DW$18	.dwtag  DW_TAG_subprogram
	.dwattr $C$DW$18, DW_AT_name("USER11_ISR")
	.dwattr $C$DW$18, DW_AT_low_pc(_USER11_ISR)
	.dwattr $C$DW$18, DW_AT_high_pc(0x00)
	.dwattr $C$DW$18, DW_AT_TI_symbol_name("_USER11_ISR")
	.dwattr $C$DW$18, DW_AT_external
	.dwattr $C$DW$18, DW_AT_TI_begin_file("C:/ti/controlSUITE/device_support/F2837xD/v210/F2837xD_common/source/F2837xD_DefaultISR.c")
	.dwattr $C$DW$18, DW_AT_TI_begin_line(0x138)
	.dwattr $C$DW$18, DW_AT_TI_begin_column(0x10)
	.dwattr $C$DW$18, DW_AT_TI_interrupt
	.dwattr $C$DW$18, DW_AT_TI_max_frame_size(-6)
	.dwpsn	file "C:/ti/controlSUITE/device_support/F2837xD/v210/F2837xD_common/source/F2837xD_DefaultISR.c",line 313,column 1,is_stmt,address _USER11_ISR,isa 0

	.dwfde $C$DW$CIE, _USER11_ISR
;----------------------------------------------------------------------
; 312 | interrupt void USER11_ISR(void)                                        
; 314 | //                                                                     
; 315 | // Insert ISR Code here                                                
; 316 | //                                                                     
; 318 | //                                                                     
; 319 | // Next two lines for debug only to halt the processor here            
; 320 | // Remove after inserting ISR Code                                     
; 321 | //                                                                     
;----------------------------------------------------------------------

;***************************************************************
;* FNAME: _USER11_ISR                   FR SIZE:   4           *
;*                                                             *
;* FUNCTION ENVIRONMENT                                        *
;*                                                             *
;* FUNCTION PROPERTIES                                         *
;*                            0 Parameter,  0 Auto,  4 SOE     *
;***************************************************************

_USER11_ISR:
	.dwcfi	cfa_offset, -2
	.dwcfi	save_reg_to_mem, 26, 0
        ASP       ; [CPU_] 
        PUSH      RB                    ; [CPU_] 
	.dwcfi	save_reg_to_mem, 73, 2
	.dwcfi	save_reg_to_mem, 74, 3
	.dwcfi	cfa_offset, -4
        MOV32     *SP++,STF             ; [CPU_] 
	.dwcfi	save_reg_to_mem, 39, 4
	.dwcfi	save_reg_to_mem, 40, 5
	.dwcfi	cfa_offset, -6
        SETFLG    RNDF32=1, RNDF64=1    ; [CPU_] 
        CLRC      PAGE0,OVM             ; [CPU_] 
        CLRC      AMODE                 ; [CPU_] 
	.dwpsn	file "C:/ti/controlSUITE/device_support/F2837xD/v210/F2837xD_common/source/F2837xD_DefaultISR.c",line 322,column 5,is_stmt,isa 0
;----------------------------------------------------------------------
; 322 | asm ("      ESTOP0");                                                  
;----------------------------------------------------------------------
      ESTOP0
$C$L18:    
	.dwpsn	file "C:/ti/controlSUITE/device_support/F2837xD/v210/F2837xD_common/source/F2837xD_DefaultISR.c",line 323,column 5,is_stmt,isa 0
;----------------------------------------------------------------------
; 323 | for(;;);                                                               
;----------------------------------------------------------------------
        B         $C$L18,UNC            ; [CPU_] |323| 
        ; branch occurs ; [] |323| 
	.dwattr $C$DW$18, DW_AT_TI_end_file("C:/ti/controlSUITE/device_support/F2837xD/v210/F2837xD_common/source/F2837xD_DefaultISR.c")
	.dwattr $C$DW$18, DW_AT_TI_end_line(0x144)
	.dwattr $C$DW$18, DW_AT_TI_end_column(0x01)
	.dwendentry
	.dwendtag $C$DW$18

	.sect	".text:retain"
	.retain
	.retainrefs
	.global	_USER12_ISR

$C$DW$19	.dwtag  DW_TAG_subprogram
	.dwattr $C$DW$19, DW_AT_name("USER12_ISR")
	.dwattr $C$DW$19, DW_AT_low_pc(_USER12_ISR)
	.dwattr $C$DW$19, DW_AT_high_pc(0x00)
	.dwattr $C$DW$19, DW_AT_TI_symbol_name("_USER12_ISR")
	.dwattr $C$DW$19, DW_AT_external
	.dwattr $C$DW$19, DW_AT_TI_begin_file("C:/ti/controlSUITE/device_support/F2837xD/v210/F2837xD_common/source/F2837xD_DefaultISR.c")
	.dwattr $C$DW$19, DW_AT_TI_begin_line(0x149)
	.dwattr $C$DW$19, DW_AT_TI_begin_column(0x10)
	.dwattr $C$DW$19, DW_AT_TI_interrupt
	.dwattr $C$DW$19, DW_AT_TI_max_frame_size(-6)
	.dwpsn	file "C:/ti/controlSUITE/device_support/F2837xD/v210/F2837xD_common/source/F2837xD_DefaultISR.c",line 330,column 1,is_stmt,address _USER12_ISR,isa 0

	.dwfde $C$DW$CIE, _USER12_ISR
;----------------------------------------------------------------------
; 329 | interrupt void USER12_ISR(void)                                        
; 331 | //                                                                     
; 332 | // Insert ISR Code here                                                
; 333 | //                                                                     
; 335 | //                                                                     
; 336 | // Next two lines for debug only to halt the processor here            
; 337 | // Remove after inserting ISR Code                                     
; 338 | //                                                                     
;----------------------------------------------------------------------

;***************************************************************
;* FNAME: _USER12_ISR                   FR SIZE:   4           *
;*                                                             *
;* FUNCTION ENVIRONMENT                                        *
;*                                                             *
;* FUNCTION PROPERTIES                                         *
;*                            0 Parameter,  0 Auto,  4 SOE     *
;***************************************************************

_USER12_ISR:
	.dwcfi	cfa_offset, -2
	.dwcfi	save_reg_to_mem, 26, 0
        ASP       ; [CPU_] 
        PUSH      RB                    ; [CPU_] 
	.dwcfi	save_reg_to_mem, 73, 2
	.dwcfi	save_reg_to_mem, 74, 3
	.dwcfi	cfa_offset, -4
        MOV32     *SP++,STF             ; [CPU_] 
	.dwcfi	save_reg_to_mem, 39, 4
	.dwcfi	save_reg_to_mem, 40, 5
	.dwcfi	cfa_offset, -6
        SETFLG    RNDF32=1, RNDF64=1    ; [CPU_] 
        CLRC      PAGE0,OVM             ; [CPU_] 
        CLRC      AMODE                 ; [CPU_] 
	.dwpsn	file "C:/ti/controlSUITE/device_support/F2837xD/v210/F2837xD_common/source/F2837xD_DefaultISR.c",line 339,column 5,is_stmt,isa 0
;----------------------------------------------------------------------
; 339 | asm ("      ESTOP0");                                                  
;----------------------------------------------------------------------
      ESTOP0
$C$L19:    
	.dwpsn	file "C:/ti/controlSUITE/device_support/F2837xD/v210/F2837xD_common/source/F2837xD_DefaultISR.c",line 340,column 5,is_stmt,isa 0
;----------------------------------------------------------------------
; 340 | for(;;);                                                               
;----------------------------------------------------------------------
        B         $C$L19,UNC            ; [CPU_] |340| 
        ; branch occurs ; [] |340| 
	.dwattr $C$DW$19, DW_AT_TI_end_file("C:/ti/controlSUITE/device_support/F2837xD/v210/F2837xD_common/source/F2837xD_DefaultISR.c")
	.dwattr $C$DW$19, DW_AT_TI_end_line(0x155)
	.dwattr $C$DW$19, DW_AT_TI_end_column(0x01)
	.dwendentry
	.dwendtag $C$DW$19

	.sect	".text:retain"
	.retain
	.retainrefs
	.global	_ADCA1_ISR

$C$DW$20	.dwtag  DW_TAG_subprogram
	.dwattr $C$DW$20, DW_AT_name("ADCA1_ISR")
	.dwattr $C$DW$20, DW_AT_low_pc(_ADCA1_ISR)
	.dwattr $C$DW$20, DW_AT_high_pc(0x00)
	.dwattr $C$DW$20, DW_AT_TI_symbol_name("_ADCA1_ISR")
	.dwattr $C$DW$20, DW_AT_external
	.dwattr $C$DW$20, DW_AT_TI_begin_file("C:/ti/controlSUITE/device_support/F2837xD/v210/F2837xD_common/source/F2837xD_DefaultISR.c")
	.dwattr $C$DW$20, DW_AT_TI_begin_line(0x15a)
	.dwattr $C$DW$20, DW_AT_TI_begin_column(0x10)
	.dwattr $C$DW$20, DW_AT_TI_interrupt
	.dwattr $C$DW$20, DW_AT_TI_max_frame_size(-6)
	.dwpsn	file "C:/ti/controlSUITE/device_support/F2837xD/v210/F2837xD_common/source/F2837xD_DefaultISR.c",line 347,column 1,is_stmt,address _ADCA1_ISR,isa 0

	.dwfde $C$DW$CIE, _ADCA1_ISR
;----------------------------------------------------------------------
; 346 | interrupt void ADCA1_ISR(void)                                         
; 348 | //                                                                     
; 349 | // Insert ISR Code here                                                
; 350 | //                                                                     
; 352 | //                                                                     
; 353 | // To receive more interrupts from this PIE group,                     
; 354 | // acknowledge this interrupt.                                         
; 355 | // PieCtrlRegs.PIEACK.all = PIEACK_GROUP1;                             
; 356 | //                                                                     
; 358 | //                                                                     
; 359 | // Next two lines for debug only to halt the processor here            
; 360 | // Remove after inserting ISR Code                                     
; 361 | //                                                                     
;----------------------------------------------------------------------

;***************************************************************
;* FNAME: _ADCA1_ISR                    FR SIZE:   4           *
;*                                                             *
;* FUNCTION ENVIRONMENT                                        *
;*                                                             *
;* FUNCTION PROPERTIES                                         *
;*                            0 Parameter,  0 Auto,  4 SOE     *
;***************************************************************

_ADCA1_ISR:
	.dwcfi	cfa_offset, -2
	.dwcfi	save_reg_to_mem, 26, 0
        ASP       ; [CPU_] 
        PUSH      RB                    ; [CPU_] 
	.dwcfi	save_reg_to_mem, 73, 2
	.dwcfi	save_reg_to_mem, 74, 3
	.dwcfi	cfa_offset, -4
        MOV32     *SP++,STF             ; [CPU_] 
	.dwcfi	save_reg_to_mem, 39, 4
	.dwcfi	save_reg_to_mem, 40, 5
	.dwcfi	cfa_offset, -6
        SETFLG    RNDF32=1, RNDF64=1    ; [CPU_] 
        CLRC      PAGE0,OVM             ; [CPU_] 
        CLRC      AMODE                 ; [CPU_] 
	.dwpsn	file "C:/ti/controlSUITE/device_support/F2837xD/v210/F2837xD_common/source/F2837xD_DefaultISR.c",line 362,column 5,is_stmt,isa 0
;----------------------------------------------------------------------
; 362 | asm ("      ESTOP0");                                                  
;----------------------------------------------------------------------
      ESTOP0
$C$L20:    
	.dwpsn	file "C:/ti/controlSUITE/device_support/F2837xD/v210/F2837xD_common/source/F2837xD_DefaultISR.c",line 363,column 5,is_stmt,isa 0
;----------------------------------------------------------------------
; 363 | for(;;);                                                               
;----------------------------------------------------------------------
        B         $C$L20,UNC            ; [CPU_] |363| 
        ; branch occurs ; [] |363| 
	.dwattr $C$DW$20, DW_AT_TI_end_file("C:/ti/controlSUITE/device_support/F2837xD/v210/F2837xD_common/source/F2837xD_DefaultISR.c")
	.dwattr $C$DW$20, DW_AT_TI_end_line(0x16c)
	.dwattr $C$DW$20, DW_AT_TI_end_column(0x01)
	.dwendentry
	.dwendtag $C$DW$20

	.sect	".text:retain"
	.retain
	.retainrefs
	.global	_ADCB1_ISR

$C$DW$21	.dwtag  DW_TAG_subprogram
	.dwattr $C$DW$21, DW_AT_name("ADCB1_ISR")
	.dwattr $C$DW$21, DW_AT_low_pc(_ADCB1_ISR)
	.dwattr $C$DW$21, DW_AT_high_pc(0x00)
	.dwattr $C$DW$21, DW_AT_TI_symbol_name("_ADCB1_ISR")
	.dwattr $C$DW$21, DW_AT_external
	.dwattr $C$DW$21, DW_AT_TI_begin_file("C:/ti/controlSUITE/device_support/F2837xD/v210/F2837xD_common/source/F2837xD_DefaultISR.c")
	.dwattr $C$DW$21, DW_AT_TI_begin_line(0x171)
	.dwattr $C$DW$21, DW_AT_TI_begin_column(0x10)
	.dwattr $C$DW$21, DW_AT_TI_interrupt
	.dwattr $C$DW$21, DW_AT_TI_max_frame_size(-6)
	.dwpsn	file "C:/ti/controlSUITE/device_support/F2837xD/v210/F2837xD_common/source/F2837xD_DefaultISR.c",line 370,column 1,is_stmt,address _ADCB1_ISR,isa 0

	.dwfde $C$DW$CIE, _ADCB1_ISR
;----------------------------------------------------------------------
; 369 | interrupt void ADCB1_ISR(void)                                         
; 371 | //                                                                     
; 372 | // Insert ISR Code here                                                
; 373 | //                                                                     
; 375 | //                                                                     
; 376 | // To receive more interrupts from this PIE group,                     
; 377 | // acknowledge this interrupt.                                         
; 378 | // PieCtrlRegs.PIEACK.all = PIEACK_GROUP1;                             
; 379 | //                                                                     
; 381 | //                                                                     
; 382 | // Next two lines for debug only to halt the processor here            
; 383 | // Remove after inserting ISR Code                                     
; 384 | //                                                                     
;----------------------------------------------------------------------

;***************************************************************
;* FNAME: _ADCB1_ISR                    FR SIZE:   4           *
;*                                                             *
;* FUNCTION ENVIRONMENT                                        *
;*                                                             *
;* FUNCTION PROPERTIES                                         *
;*                            0 Parameter,  0 Auto,  4 SOE     *
;***************************************************************

_ADCB1_ISR:
	.dwcfi	cfa_offset, -2
	.dwcfi	save_reg_to_mem, 26, 0
        ASP       ; [CPU_] 
        PUSH      RB                    ; [CPU_] 
	.dwcfi	save_reg_to_mem, 73, 2
	.dwcfi	save_reg_to_mem, 74, 3
	.dwcfi	cfa_offset, -4
        MOV32     *SP++,STF             ; [CPU_] 
	.dwcfi	save_reg_to_mem, 39, 4
	.dwcfi	save_reg_to_mem, 40, 5
	.dwcfi	cfa_offset, -6
        SETFLG    RNDF32=1, RNDF64=1    ; [CPU_] 
        CLRC      PAGE0,OVM             ; [CPU_] 
        CLRC      AMODE                 ; [CPU_] 
	.dwpsn	file "C:/ti/controlSUITE/device_support/F2837xD/v210/F2837xD_common/source/F2837xD_DefaultISR.c",line 385,column 5,is_stmt,isa 0
;----------------------------------------------------------------------
; 385 | asm ("      ESTOP0");                                                  
;----------------------------------------------------------------------
      ESTOP0
$C$L21:    
	.dwpsn	file "C:/ti/controlSUITE/device_support/F2837xD/v210/F2837xD_common/source/F2837xD_DefaultISR.c",line 386,column 5,is_stmt,isa 0
;----------------------------------------------------------------------
; 386 | for(;;);                                                               
;----------------------------------------------------------------------
        B         $C$L21,UNC            ; [CPU_] |386| 
        ; branch occurs ; [] |386| 
	.dwattr $C$DW$21, DW_AT_TI_end_file("C:/ti/controlSUITE/device_support/F2837xD/v210/F2837xD_common/source/F2837xD_DefaultISR.c")
	.dwattr $C$DW$21, DW_AT_TI_end_line(0x183)
	.dwattr $C$DW$21, DW_AT_TI_end_column(0x01)
	.dwendentry
	.dwendtag $C$DW$21

	.sect	".text:retain"
	.retain
	.retainrefs
	.global	_ADCC1_ISR

$C$DW$22	.dwtag  DW_TAG_subprogram
	.dwattr $C$DW$22, DW_AT_name("ADCC1_ISR")
	.dwattr $C$DW$22, DW_AT_low_pc(_ADCC1_ISR)
	.dwattr $C$DW$22, DW_AT_high_pc(0x00)
	.dwattr $C$DW$22, DW_AT_TI_symbol_name("_ADCC1_ISR")
	.dwattr $C$DW$22, DW_AT_external
	.dwattr $C$DW$22, DW_AT_TI_begin_file("C:/ti/controlSUITE/device_support/F2837xD/v210/F2837xD_common/source/F2837xD_DefaultISR.c")
	.dwattr $C$DW$22, DW_AT_TI_begin_line(0x188)
	.dwattr $C$DW$22, DW_AT_TI_begin_column(0x10)
	.dwattr $C$DW$22, DW_AT_TI_interrupt
	.dwattr $C$DW$22, DW_AT_TI_max_frame_size(-6)
	.dwpsn	file "C:/ti/controlSUITE/device_support/F2837xD/v210/F2837xD_common/source/F2837xD_DefaultISR.c",line 393,column 1,is_stmt,address _ADCC1_ISR,isa 0

	.dwfde $C$DW$CIE, _ADCC1_ISR
;----------------------------------------------------------------------
; 392 | interrupt void ADCC1_ISR(void)                                         
; 394 | //                                                                     
; 395 | // Insert ISR Code here                                                
; 396 | //                                                                     
; 398 | //                                                                     
; 399 | // To receive more interrupts from this PIE group,                     
; 400 | // acknowledge this interrupt.                                         
; 401 | // PieCtrlRegs.PIEACK.all = PIEACK_GROUP1;                             
; 402 | //                                                                     
; 404 | //                                                                     
; 405 | // Next two lines for debug only to halt the processor here            
; 406 | // Remove after inserting ISR Code                                     
; 407 | //                                                                     
;----------------------------------------------------------------------

;***************************************************************
;* FNAME: _ADCC1_ISR                    FR SIZE:   4           *
;*                                                             *
;* FUNCTION ENVIRONMENT                                        *
;*                                                             *
;* FUNCTION PROPERTIES                                         *
;*                            0 Parameter,  0 Auto,  4 SOE     *
;***************************************************************

_ADCC1_ISR:
	.dwcfi	cfa_offset, -2
	.dwcfi	save_reg_to_mem, 26, 0
        ASP       ; [CPU_] 
        PUSH      RB                    ; [CPU_] 
	.dwcfi	save_reg_to_mem, 73, 2
	.dwcfi	save_reg_to_mem, 74, 3
	.dwcfi	cfa_offset, -4
        MOV32     *SP++,STF             ; [CPU_] 
	.dwcfi	save_reg_to_mem, 39, 4
	.dwcfi	save_reg_to_mem, 40, 5
	.dwcfi	cfa_offset, -6
        SETFLG    RNDF32=1, RNDF64=1    ; [CPU_] 
        CLRC      PAGE0,OVM             ; [CPU_] 
        CLRC      AMODE                 ; [CPU_] 
	.dwpsn	file "C:/ti/controlSUITE/device_support/F2837xD/v210/F2837xD_common/source/F2837xD_DefaultISR.c",line 408,column 5,is_stmt,isa 0
;----------------------------------------------------------------------
; 408 | asm ("      ESTOP0");                                                  
;----------------------------------------------------------------------
      ESTOP0
$C$L22:    
	.dwpsn	file "C:/ti/controlSUITE/device_support/F2837xD/v210/F2837xD_common/source/F2837xD_DefaultISR.c",line 409,column 5,is_stmt,isa 0
;----------------------------------------------------------------------
; 409 | for(;;);                                                               
;----------------------------------------------------------------------
        B         $C$L22,UNC            ; [CPU_] |409| 
        ; branch occurs ; [] |409| 
	.dwattr $C$DW$22, DW_AT_TI_end_file("C:/ti/controlSUITE/device_support/F2837xD/v210/F2837xD_common/source/F2837xD_DefaultISR.c")
	.dwattr $C$DW$22, DW_AT_TI_end_line(0x19a)
	.dwattr $C$DW$22, DW_AT_TI_end_column(0x01)
	.dwendentry
	.dwendtag $C$DW$22

	.sect	".text:retain"
	.retain
	.retainrefs
	.global	_XINT1_ISR

$C$DW$23	.dwtag  DW_TAG_subprogram
	.dwattr $C$DW$23, DW_AT_name("XINT1_ISR")
	.dwattr $C$DW$23, DW_AT_low_pc(_XINT1_ISR)
	.dwattr $C$DW$23, DW_AT_high_pc(0x00)
	.dwattr $C$DW$23, DW_AT_TI_symbol_name("_XINT1_ISR")
	.dwattr $C$DW$23, DW_AT_external
	.dwattr $C$DW$23, DW_AT_TI_begin_file("C:/ti/controlSUITE/device_support/F2837xD/v210/F2837xD_common/source/F2837xD_DefaultISR.c")
	.dwattr $C$DW$23, DW_AT_TI_begin_line(0x19f)
	.dwattr $C$DW$23, DW_AT_TI_begin_column(0x10)
	.dwattr $C$DW$23, DW_AT_TI_interrupt
	.dwattr $C$DW$23, DW_AT_TI_max_frame_size(-6)
	.dwpsn	file "C:/ti/controlSUITE/device_support/F2837xD/v210/F2837xD_common/source/F2837xD_DefaultISR.c",line 416,column 1,is_stmt,address _XINT1_ISR,isa 0

	.dwfde $C$DW$CIE, _XINT1_ISR
;----------------------------------------------------------------------
; 415 | interrupt void XINT1_ISR(void)                                         
; 417 | //                                                                     
; 418 | // Insert ISR Code here                                                
; 419 | //                                                                     
; 421 | //                                                                     
; 422 | // To receive more interrupts from this PIE group,                     
; 423 | // acknowledge this interrupt.                                         
; 424 | // PieCtrlRegs.PIEACK.all = PIEACK_GROUP1;                             
; 425 | //                                                                     
; 427 | //                                                                     
; 428 | // Next two lines for debug only to halt the processor here            
; 429 | // Remove after inserting ISR Code                                     
; 430 | //                                                                     
;----------------------------------------------------------------------

;***************************************************************
;* FNAME: _XINT1_ISR                    FR SIZE:   4           *
;*                                                             *
;* FUNCTION ENVIRONMENT                                        *
;*                                                             *
;* FUNCTION PROPERTIES                                         *
;*                            0 Parameter,  0 Auto,  4 SOE     *
;***************************************************************

_XINT1_ISR:
	.dwcfi	cfa_offset, -2
	.dwcfi	save_reg_to_mem, 26, 0
        ASP       ; [CPU_] 
        PUSH      RB                    ; [CPU_] 
	.dwcfi	save_reg_to_mem, 73, 2
	.dwcfi	save_reg_to_mem, 74, 3
	.dwcfi	cfa_offset, -4
        MOV32     *SP++,STF             ; [CPU_] 
	.dwcfi	save_reg_to_mem, 39, 4
	.dwcfi	save_reg_to_mem, 40, 5
	.dwcfi	cfa_offset, -6
        SETFLG    RNDF32=1, RNDF64=1    ; [CPU_] 
        CLRC      PAGE0,OVM             ; [CPU_] 
        CLRC      AMODE                 ; [CPU_] 
	.dwpsn	file "C:/ti/controlSUITE/device_support/F2837xD/v210/F2837xD_common/source/F2837xD_DefaultISR.c",line 431,column 5,is_stmt,isa 0
;----------------------------------------------------------------------
; 431 | asm ("      ESTOP0");                                                  
;----------------------------------------------------------------------
      ESTOP0
$C$L23:    
	.dwpsn	file "C:/ti/controlSUITE/device_support/F2837xD/v210/F2837xD_common/source/F2837xD_DefaultISR.c",line 432,column 5,is_stmt,isa 0
;----------------------------------------------------------------------
; 432 | for(;;);                                                               
;----------------------------------------------------------------------
        B         $C$L23,UNC            ; [CPU_] |432| 
        ; branch occurs ; [] |432| 
	.dwattr $C$DW$23, DW_AT_TI_end_file("C:/ti/controlSUITE/device_support/F2837xD/v210/F2837xD_common/source/F2837xD_DefaultISR.c")
	.dwattr $C$DW$23, DW_AT_TI_end_line(0x1b1)
	.dwattr $C$DW$23, DW_AT_TI_end_column(0x01)
	.dwendentry
	.dwendtag $C$DW$23

	.sect	".text:retain"
	.retain
	.retainrefs
	.global	_XINT2_ISR

$C$DW$24	.dwtag  DW_TAG_subprogram
	.dwattr $C$DW$24, DW_AT_name("XINT2_ISR")
	.dwattr $C$DW$24, DW_AT_low_pc(_XINT2_ISR)
	.dwattr $C$DW$24, DW_AT_high_pc(0x00)
	.dwattr $C$DW$24, DW_AT_TI_symbol_name("_XINT2_ISR")
	.dwattr $C$DW$24, DW_AT_external
	.dwattr $C$DW$24, DW_AT_TI_begin_file("C:/ti/controlSUITE/device_support/F2837xD/v210/F2837xD_common/source/F2837xD_DefaultISR.c")
	.dwattr $C$DW$24, DW_AT_TI_begin_line(0x1b6)
	.dwattr $C$DW$24, DW_AT_TI_begin_column(0x10)
	.dwattr $C$DW$24, DW_AT_TI_interrupt
	.dwattr $C$DW$24, DW_AT_TI_max_frame_size(-6)
	.dwpsn	file "C:/ti/controlSUITE/device_support/F2837xD/v210/F2837xD_common/source/F2837xD_DefaultISR.c",line 439,column 1,is_stmt,address _XINT2_ISR,isa 0

	.dwfde $C$DW$CIE, _XINT2_ISR
;----------------------------------------------------------------------
; 438 | interrupt void XINT2_ISR(void)                                         
; 440 | //                                                                     
; 441 | // Insert ISR Code here                                                
; 442 | //                                                                     
; 444 | //                                                                     
; 445 | // To receive more interrupts from this PIE group,                     
; 446 | // acknowledge this interrupt.                                         
; 447 | // PieCtrlRegs.PIEACK.all = PIEACK_GROUP1;                             
; 448 | //                                                                     
; 450 | //                                                                     
; 451 | // Next two lines for debug only to halt the processor here            
; 452 | // Remove after inserting ISR Code                                     
; 453 | //                                                                     
;----------------------------------------------------------------------

;***************************************************************
;* FNAME: _XINT2_ISR                    FR SIZE:   4           *
;*                                                             *
;* FUNCTION ENVIRONMENT                                        *
;*                                                             *
;* FUNCTION PROPERTIES                                         *
;*                            0 Parameter,  0 Auto,  4 SOE     *
;***************************************************************

_XINT2_ISR:
	.dwcfi	cfa_offset, -2
	.dwcfi	save_reg_to_mem, 26, 0
        ASP       ; [CPU_] 
        PUSH      RB                    ; [CPU_] 
	.dwcfi	save_reg_to_mem, 73, 2
	.dwcfi	save_reg_to_mem, 74, 3
	.dwcfi	cfa_offset, -4
        MOV32     *SP++,STF             ; [CPU_] 
	.dwcfi	save_reg_to_mem, 39, 4
	.dwcfi	save_reg_to_mem, 40, 5
	.dwcfi	cfa_offset, -6
        SETFLG    RNDF32=1, RNDF64=1    ; [CPU_] 
        CLRC      PAGE0,OVM             ; [CPU_] 
        CLRC      AMODE                 ; [CPU_] 
	.dwpsn	file "C:/ti/controlSUITE/device_support/F2837xD/v210/F2837xD_common/source/F2837xD_DefaultISR.c",line 454,column 5,is_stmt,isa 0
;----------------------------------------------------------------------
; 454 | asm ("      ESTOP0");                                                  
;----------------------------------------------------------------------
      ESTOP0
$C$L24:    
	.dwpsn	file "C:/ti/controlSUITE/device_support/F2837xD/v210/F2837xD_common/source/F2837xD_DefaultISR.c",line 455,column 5,is_stmt,isa 0
;----------------------------------------------------------------------
; 455 | for(;;);                                                               
;----------------------------------------------------------------------
        B         $C$L24,UNC            ; [CPU_] |455| 
        ; branch occurs ; [] |455| 
	.dwattr $C$DW$24, DW_AT_TI_end_file("C:/ti/controlSUITE/device_support/F2837xD/v210/F2837xD_common/source/F2837xD_DefaultISR.c")
	.dwattr $C$DW$24, DW_AT_TI_end_line(0x1c8)
	.dwattr $C$DW$24, DW_AT_TI_end_column(0x01)
	.dwendentry
	.dwendtag $C$DW$24

	.sect	".text:retain"
	.retain
	.retainrefs
	.global	_ADCD1_ISR

$C$DW$25	.dwtag  DW_TAG_subprogram
	.dwattr $C$DW$25, DW_AT_name("ADCD1_ISR")
	.dwattr $C$DW$25, DW_AT_low_pc(_ADCD1_ISR)
	.dwattr $C$DW$25, DW_AT_high_pc(0x00)
	.dwattr $C$DW$25, DW_AT_TI_symbol_name("_ADCD1_ISR")
	.dwattr $C$DW$25, DW_AT_external
	.dwattr $C$DW$25, DW_AT_TI_begin_file("C:/ti/controlSUITE/device_support/F2837xD/v210/F2837xD_common/source/F2837xD_DefaultISR.c")
	.dwattr $C$DW$25, DW_AT_TI_begin_line(0x1cd)
	.dwattr $C$DW$25, DW_AT_TI_begin_column(0x10)
	.dwattr $C$DW$25, DW_AT_TI_interrupt
	.dwattr $C$DW$25, DW_AT_TI_max_frame_size(-6)
	.dwpsn	file "C:/ti/controlSUITE/device_support/F2837xD/v210/F2837xD_common/source/F2837xD_DefaultISR.c",line 462,column 1,is_stmt,address _ADCD1_ISR,isa 0

	.dwfde $C$DW$CIE, _ADCD1_ISR
;----------------------------------------------------------------------
; 461 | interrupt void ADCD1_ISR(void)                                         
; 463 | //                                                                     
; 464 | // Insert ISR Code here                                                
; 465 | //                                                                     
; 467 | //                                                                     
; 468 | // To receive more interrupts from this PIE group,                     
; 469 | // acknowledge this interrupt.                                         
; 470 | // PieCtrlRegs.PIEACK.all = PIEACK_GROUP1;                             
; 471 | //                                                                     
; 473 | //                                                                     
; 474 | // Next two lines for debug only to halt the processor here            
; 475 | // Remove after inserting ISR Code                                     
; 476 | //                                                                     
;----------------------------------------------------------------------

;***************************************************************
;* FNAME: _ADCD1_ISR                    FR SIZE:   4           *
;*                                                             *
;* FUNCTION ENVIRONMENT                                        *
;*                                                             *
;* FUNCTION PROPERTIES                                         *
;*                            0 Parameter,  0 Auto,  4 SOE     *
;***************************************************************

_ADCD1_ISR:
	.dwcfi	cfa_offset, -2
	.dwcfi	save_reg_to_mem, 26, 0
        ASP       ; [CPU_] 
        PUSH      RB                    ; [CPU_] 
	.dwcfi	save_reg_to_mem, 73, 2
	.dwcfi	save_reg_to_mem, 74, 3
	.dwcfi	cfa_offset, -4
        MOV32     *SP++,STF             ; [CPU_] 
	.dwcfi	save_reg_to_mem, 39, 4
	.dwcfi	save_reg_to_mem, 40, 5
	.dwcfi	cfa_offset, -6
        SETFLG    RNDF32=1, RNDF64=1    ; [CPU_] 
        CLRC      PAGE0,OVM             ; [CPU_] 
        CLRC      AMODE                 ; [CPU_] 
	.dwpsn	file "C:/ti/controlSUITE/device_support/F2837xD/v210/F2837xD_common/source/F2837xD_DefaultISR.c",line 477,column 5,is_stmt,isa 0
;----------------------------------------------------------------------
; 477 | asm ("      ESTOP0");                                                  
;----------------------------------------------------------------------
      ESTOP0
$C$L25:    
	.dwpsn	file "C:/ti/controlSUITE/device_support/F2837xD/v210/F2837xD_common/source/F2837xD_DefaultISR.c",line 478,column 5,is_stmt,isa 0
;----------------------------------------------------------------------
; 478 | for(;;);                                                               
;----------------------------------------------------------------------
        B         $C$L25,UNC            ; [CPU_] |478| 
        ; branch occurs ; [] |478| 
	.dwattr $C$DW$25, DW_AT_TI_end_file("C:/ti/controlSUITE/device_support/F2837xD/v210/F2837xD_common/source/F2837xD_DefaultISR.c")
	.dwattr $C$DW$25, DW_AT_TI_end_line(0x1df)
	.dwattr $C$DW$25, DW_AT_TI_end_column(0x01)
	.dwendentry
	.dwendtag $C$DW$25

	.sect	".text:retain"
	.retain
	.retainrefs
	.global	_TIMER0_ISR

$C$DW$26	.dwtag  DW_TAG_subprogram
	.dwattr $C$DW$26, DW_AT_name("TIMER0_ISR")
	.dwattr $C$DW$26, DW_AT_low_pc(_TIMER0_ISR)
	.dwattr $C$DW$26, DW_AT_high_pc(0x00)
	.dwattr $C$DW$26, DW_AT_TI_symbol_name("_TIMER0_ISR")
	.dwattr $C$DW$26, DW_AT_external
	.dwattr $C$DW$26, DW_AT_TI_begin_file("C:/ti/controlSUITE/device_support/F2837xD/v210/F2837xD_common/source/F2837xD_DefaultISR.c")
	.dwattr $C$DW$26, DW_AT_TI_begin_line(0x1e4)
	.dwattr $C$DW$26, DW_AT_TI_begin_column(0x10)
	.dwattr $C$DW$26, DW_AT_TI_interrupt
	.dwattr $C$DW$26, DW_AT_TI_max_frame_size(-6)
	.dwpsn	file "C:/ti/controlSUITE/device_support/F2837xD/v210/F2837xD_common/source/F2837xD_DefaultISR.c",line 485,column 1,is_stmt,address _TIMER0_ISR,isa 0

	.dwfde $C$DW$CIE, _TIMER0_ISR
;----------------------------------------------------------------------
; 484 | interrupt void TIMER0_ISR(void)                                        
; 486 | //                                                                     
; 487 | // Insert ISR Code here                                                
; 488 | //                                                                     
; 490 | //                                                                     
; 491 | // To receive more interrupts from this PIE group,                     
; 492 | // acknowledge this interrupt.                                         
; 493 | // PieCtrlRegs.PIEACK.all = PIEACK_GROUP1;                             
; 494 | //                                                                     
; 496 | //                                                                     
; 497 | // Next two lines for debug only to halt the processor here            
; 498 | // Remove after inserting ISR Code                                     
; 499 | //                                                                     
;----------------------------------------------------------------------

;***************************************************************
;* FNAME: _TIMER0_ISR                   FR SIZE:   4           *
;*                                                             *
;* FUNCTION ENVIRONMENT                                        *
;*                                                             *
;* FUNCTION PROPERTIES                                         *
;*                            0 Parameter,  0 Auto,  4 SOE     *
;***************************************************************

_TIMER0_ISR:
	.dwcfi	cfa_offset, -2
	.dwcfi	save_reg_to_mem, 26, 0
        ASP       ; [CPU_] 
        PUSH      RB                    ; [CPU_] 
	.dwcfi	save_reg_to_mem, 73, 2
	.dwcfi	save_reg_to_mem, 74, 3
	.dwcfi	cfa_offset, -4
        MOV32     *SP++,STF             ; [CPU_] 
	.dwcfi	save_reg_to_mem, 39, 4
	.dwcfi	save_reg_to_mem, 40, 5
	.dwcfi	cfa_offset, -6
        SETFLG    RNDF32=1, RNDF64=1    ; [CPU_] 
        CLRC      PAGE0,OVM             ; [CPU_] 
        CLRC      AMODE                 ; [CPU_] 
	.dwpsn	file "C:/ti/controlSUITE/device_support/F2837xD/v210/F2837xD_common/source/F2837xD_DefaultISR.c",line 500,column 5,is_stmt,isa 0
;----------------------------------------------------------------------
; 500 | asm ("      ESTOP0");                                                  
;----------------------------------------------------------------------
      ESTOP0
$C$L26:    
	.dwpsn	file "C:/ti/controlSUITE/device_support/F2837xD/v210/F2837xD_common/source/F2837xD_DefaultISR.c",line 501,column 5,is_stmt,isa 0
;----------------------------------------------------------------------
; 501 | for(;;);                                                               
;----------------------------------------------------------------------
        B         $C$L26,UNC            ; [CPU_] |501| 
        ; branch occurs ; [] |501| 
	.dwattr $C$DW$26, DW_AT_TI_end_file("C:/ti/controlSUITE/device_support/F2837xD/v210/F2837xD_common/source/F2837xD_DefaultISR.c")
	.dwattr $C$DW$26, DW_AT_TI_end_line(0x1f6)
	.dwattr $C$DW$26, DW_AT_TI_end_column(0x01)
	.dwendentry
	.dwendtag $C$DW$26

	.sect	".text:retain"
	.retain
	.retainrefs
	.global	_WAKE_ISR

$C$DW$27	.dwtag  DW_TAG_subprogram
	.dwattr $C$DW$27, DW_AT_name("WAKE_ISR")
	.dwattr $C$DW$27, DW_AT_low_pc(_WAKE_ISR)
	.dwattr $C$DW$27, DW_AT_high_pc(0x00)
	.dwattr $C$DW$27, DW_AT_TI_symbol_name("_WAKE_ISR")
	.dwattr $C$DW$27, DW_AT_external
	.dwattr $C$DW$27, DW_AT_TI_begin_file("C:/ti/controlSUITE/device_support/F2837xD/v210/F2837xD_common/source/F2837xD_DefaultISR.c")
	.dwattr $C$DW$27, DW_AT_TI_begin_line(0x1fb)
	.dwattr $C$DW$27, DW_AT_TI_begin_column(0x10)
	.dwattr $C$DW$27, DW_AT_TI_interrupt
	.dwattr $C$DW$27, DW_AT_TI_max_frame_size(-6)
	.dwpsn	file "C:/ti/controlSUITE/device_support/F2837xD/v210/F2837xD_common/source/F2837xD_DefaultISR.c",line 508,column 1,is_stmt,address _WAKE_ISR,isa 0

	.dwfde $C$DW$CIE, _WAKE_ISR
;----------------------------------------------------------------------
; 507 | interrupt void WAKE_ISR(void)                                          
; 509 | //                                                                     
; 510 | // Insert ISR Code here                                                
; 511 | //                                                                     
; 513 | //                                                                     
; 514 | // To receive more interrupts from this PIE group,                     
; 515 | // acknowledge this interrupt.                                         
; 516 | // PieCtrlRegs.PIEACK.all = PIEACK_GROUP1;                             
; 517 | //                                                                     
; 519 | //                                                                     
; 520 | // Next two lines for debug only to halt the processor here            
; 521 | // Remove after inserting ISR Code                                     
; 522 | //                                                                     
;----------------------------------------------------------------------

;***************************************************************
;* FNAME: _WAKE_ISR                     FR SIZE:   4           *
;*                                                             *
;* FUNCTION ENVIRONMENT                                        *
;*                                                             *
;* FUNCTION PROPERTIES                                         *
;*                            0 Parameter,  0 Auto,  4 SOE     *
;***************************************************************

_WAKE_ISR:
	.dwcfi	cfa_offset, -2
	.dwcfi	save_reg_to_mem, 26, 0
        ASP       ; [CPU_] 
        PUSH      RB                    ; [CPU_] 
	.dwcfi	save_reg_to_mem, 73, 2
	.dwcfi	save_reg_to_mem, 74, 3
	.dwcfi	cfa_offset, -4
        MOV32     *SP++,STF             ; [CPU_] 
	.dwcfi	save_reg_to_mem, 39, 4
	.dwcfi	save_reg_to_mem, 40, 5
	.dwcfi	cfa_offset, -6
        SETFLG    RNDF32=1, RNDF64=1    ; [CPU_] 
        CLRC      PAGE0,OVM             ; [CPU_] 
        CLRC      AMODE                 ; [CPU_] 
	.dwpsn	file "C:/ti/controlSUITE/device_support/F2837xD/v210/F2837xD_common/source/F2837xD_DefaultISR.c",line 523,column 5,is_stmt,isa 0
;----------------------------------------------------------------------
; 523 | asm ("      ESTOP0");                                                  
;----------------------------------------------------------------------
      ESTOP0
$C$L27:    
	.dwpsn	file "C:/ti/controlSUITE/device_support/F2837xD/v210/F2837xD_common/source/F2837xD_DefaultISR.c",line 524,column 5,is_stmt,isa 0
;----------------------------------------------------------------------
; 524 | for(;;);                                                               
;----------------------------------------------------------------------
        B         $C$L27,UNC            ; [CPU_] |524| 
        ; branch occurs ; [] |524| 
	.dwattr $C$DW$27, DW_AT_TI_end_file("C:/ti/controlSUITE/device_support/F2837xD/v210/F2837xD_common/source/F2837xD_DefaultISR.c")
	.dwattr $C$DW$27, DW_AT_TI_end_line(0x20d)
	.dwattr $C$DW$27, DW_AT_TI_end_column(0x01)
	.dwendentry
	.dwendtag $C$DW$27

	.sect	".text:retain"
	.retain
	.retainrefs
	.global	_EPWM1_TZ_ISR

$C$DW$28	.dwtag  DW_TAG_subprogram
	.dwattr $C$DW$28, DW_AT_name("EPWM1_TZ_ISR")
	.dwattr $C$DW$28, DW_AT_low_pc(_EPWM1_TZ_ISR)
	.dwattr $C$DW$28, DW_AT_high_pc(0x00)
	.dwattr $C$DW$28, DW_AT_TI_symbol_name("_EPWM1_TZ_ISR")
	.dwattr $C$DW$28, DW_AT_external
	.dwattr $C$DW$28, DW_AT_TI_begin_file("C:/ti/controlSUITE/device_support/F2837xD/v210/F2837xD_common/source/F2837xD_DefaultISR.c")
	.dwattr $C$DW$28, DW_AT_TI_begin_line(0x212)
	.dwattr $C$DW$28, DW_AT_TI_begin_column(0x10)
	.dwattr $C$DW$28, DW_AT_TI_interrupt
	.dwattr $C$DW$28, DW_AT_TI_max_frame_size(-6)
	.dwpsn	file "C:/ti/controlSUITE/device_support/F2837xD/v210/F2837xD_common/source/F2837xD_DefaultISR.c",line 531,column 1,is_stmt,address _EPWM1_TZ_ISR,isa 0

	.dwfde $C$DW$CIE, _EPWM1_TZ_ISR
;----------------------------------------------------------------------
; 530 | interrupt void EPWM1_TZ_ISR(void)                                      
; 532 | //                                                                     
; 533 | // Insert ISR Code here                                                
; 534 | //                                                                     
; 536 | //                                                                     
; 537 | // To receive more interrupts from this PIE group,                     
; 538 | // acknowledge this interrupt.                                         
; 539 | // PieCtrlRegs.PIEACK.all = PIEACK_GROUP2;                             
; 540 | //                                                                     
; 542 | //                                                                     
; 543 | // Next two lines for debug only to halt the processor here            
; 544 | // Remove after inserting ISR Code                                     
; 545 | //                                                                     
;----------------------------------------------------------------------

;***************************************************************
;* FNAME: _EPWM1_TZ_ISR                 FR SIZE:   4           *
;*                                                             *
;* FUNCTION ENVIRONMENT                                        *
;*                                                             *
;* FUNCTION PROPERTIES                                         *
;*                            0 Parameter,  0 Auto,  4 SOE     *
;***************************************************************

_EPWM1_TZ_ISR:
	.dwcfi	cfa_offset, -2
	.dwcfi	save_reg_to_mem, 26, 0
        ASP       ; [CPU_] 
        PUSH      RB                    ; [CPU_] 
	.dwcfi	save_reg_to_mem, 73, 2
	.dwcfi	save_reg_to_mem, 74, 3
	.dwcfi	cfa_offset, -4
        MOV32     *SP++,STF             ; [CPU_] 
	.dwcfi	save_reg_to_mem, 39, 4
	.dwcfi	save_reg_to_mem, 40, 5
	.dwcfi	cfa_offset, -6
        SETFLG    RNDF32=1, RNDF64=1    ; [CPU_] 
        CLRC      PAGE0,OVM             ; [CPU_] 
        CLRC      AMODE                 ; [CPU_] 
	.dwpsn	file "C:/ti/controlSUITE/device_support/F2837xD/v210/F2837xD_common/source/F2837xD_DefaultISR.c",line 546,column 5,is_stmt,isa 0
;----------------------------------------------------------------------
; 546 | asm ("      ESTOP0");                                                  
;----------------------------------------------------------------------
      ESTOP0
$C$L28:    
	.dwpsn	file "C:/ti/controlSUITE/device_support/F2837xD/v210/F2837xD_common/source/F2837xD_DefaultISR.c",line 547,column 5,is_stmt,isa 0
;----------------------------------------------------------------------
; 547 | for(;;);                                                               
;----------------------------------------------------------------------
        B         $C$L28,UNC            ; [CPU_] |547| 
        ; branch occurs ; [] |547| 
	.dwattr $C$DW$28, DW_AT_TI_end_file("C:/ti/controlSUITE/device_support/F2837xD/v210/F2837xD_common/source/F2837xD_DefaultISR.c")
	.dwattr $C$DW$28, DW_AT_TI_end_line(0x224)
	.dwattr $C$DW$28, DW_AT_TI_end_column(0x01)
	.dwendentry
	.dwendtag $C$DW$28

	.sect	".text:retain"
	.retain
	.retainrefs
	.global	_EPWM2_TZ_ISR

$C$DW$29	.dwtag  DW_TAG_subprogram
	.dwattr $C$DW$29, DW_AT_name("EPWM2_TZ_ISR")
	.dwattr $C$DW$29, DW_AT_low_pc(_EPWM2_TZ_ISR)
	.dwattr $C$DW$29, DW_AT_high_pc(0x00)
	.dwattr $C$DW$29, DW_AT_TI_symbol_name("_EPWM2_TZ_ISR")
	.dwattr $C$DW$29, DW_AT_external
	.dwattr $C$DW$29, DW_AT_TI_begin_file("C:/ti/controlSUITE/device_support/F2837xD/v210/F2837xD_common/source/F2837xD_DefaultISR.c")
	.dwattr $C$DW$29, DW_AT_TI_begin_line(0x229)
	.dwattr $C$DW$29, DW_AT_TI_begin_column(0x10)
	.dwattr $C$DW$29, DW_AT_TI_interrupt
	.dwattr $C$DW$29, DW_AT_TI_max_frame_size(-6)
	.dwpsn	file "C:/ti/controlSUITE/device_support/F2837xD/v210/F2837xD_common/source/F2837xD_DefaultISR.c",line 554,column 1,is_stmt,address _EPWM2_TZ_ISR,isa 0

	.dwfde $C$DW$CIE, _EPWM2_TZ_ISR
;----------------------------------------------------------------------
; 553 | interrupt void EPWM2_TZ_ISR(void)                                      
; 555 | //                                                                     
; 556 | // Insert ISR Code here                                                
; 557 | //                                                                     
; 559 | //                                                                     
; 560 | // To receive more interrupts from this PIE group,                     
; 561 | // acknowledge this interrupt.                                         
; 562 | // PieCtrlRegs.PIEACK.all = PIEACK_GROUP2;                             
; 563 | //                                                                     
; 565 | //                                                                     
; 566 | // Next two lines for debug only to halt the processor here            
; 567 | // Remove after inserting ISR Code                                     
; 568 | //                                                                     
;----------------------------------------------------------------------

;***************************************************************
;* FNAME: _EPWM2_TZ_ISR                 FR SIZE:   4           *
;*                                                             *
;* FUNCTION ENVIRONMENT                                        *
;*                                                             *
;* FUNCTION PROPERTIES                                         *
;*                            0 Parameter,  0 Auto,  4 SOE     *
;***************************************************************

_EPWM2_TZ_ISR:
	.dwcfi	cfa_offset, -2
	.dwcfi	save_reg_to_mem, 26, 0
        ASP       ; [CPU_] 
        PUSH      RB                    ; [CPU_] 
	.dwcfi	save_reg_to_mem, 73, 2
	.dwcfi	save_reg_to_mem, 74, 3
	.dwcfi	cfa_offset, -4
        MOV32     *SP++,STF             ; [CPU_] 
	.dwcfi	save_reg_to_mem, 39, 4
	.dwcfi	save_reg_to_mem, 40, 5
	.dwcfi	cfa_offset, -6
        SETFLG    RNDF32=1, RNDF64=1    ; [CPU_] 
        CLRC      PAGE0,OVM             ; [CPU_] 
        CLRC      AMODE                 ; [CPU_] 
	.dwpsn	file "C:/ti/controlSUITE/device_support/F2837xD/v210/F2837xD_common/source/F2837xD_DefaultISR.c",line 569,column 5,is_stmt,isa 0
;----------------------------------------------------------------------
; 569 | asm ("      ESTOP0");                                                  
;----------------------------------------------------------------------
      ESTOP0
$C$L29:    
	.dwpsn	file "C:/ti/controlSUITE/device_support/F2837xD/v210/F2837xD_common/source/F2837xD_DefaultISR.c",line 570,column 5,is_stmt,isa 0
;----------------------------------------------------------------------
; 570 | for(;;);                                                               
;----------------------------------------------------------------------
        B         $C$L29,UNC            ; [CPU_] |570| 
        ; branch occurs ; [] |570| 
	.dwattr $C$DW$29, DW_AT_TI_end_file("C:/ti/controlSUITE/device_support/F2837xD/v210/F2837xD_common/source/F2837xD_DefaultISR.c")
	.dwattr $C$DW$29, DW_AT_TI_end_line(0x23b)
	.dwattr $C$DW$29, DW_AT_TI_end_column(0x01)
	.dwendentry
	.dwendtag $C$DW$29

	.sect	".text:retain"
	.retain
	.retainrefs
	.global	_EPWM3_TZ_ISR

$C$DW$30	.dwtag  DW_TAG_subprogram
	.dwattr $C$DW$30, DW_AT_name("EPWM3_TZ_ISR")
	.dwattr $C$DW$30, DW_AT_low_pc(_EPWM3_TZ_ISR)
	.dwattr $C$DW$30, DW_AT_high_pc(0x00)
	.dwattr $C$DW$30, DW_AT_TI_symbol_name("_EPWM3_TZ_ISR")
	.dwattr $C$DW$30, DW_AT_external
	.dwattr $C$DW$30, DW_AT_TI_begin_file("C:/ti/controlSUITE/device_support/F2837xD/v210/F2837xD_common/source/F2837xD_DefaultISR.c")
	.dwattr $C$DW$30, DW_AT_TI_begin_line(0x240)
	.dwattr $C$DW$30, DW_AT_TI_begin_column(0x10)
	.dwattr $C$DW$30, DW_AT_TI_interrupt
	.dwattr $C$DW$30, DW_AT_TI_max_frame_size(-6)
	.dwpsn	file "C:/ti/controlSUITE/device_support/F2837xD/v210/F2837xD_common/source/F2837xD_DefaultISR.c",line 577,column 1,is_stmt,address _EPWM3_TZ_ISR,isa 0

	.dwfde $C$DW$CIE, _EPWM3_TZ_ISR
;----------------------------------------------------------------------
; 576 | interrupt void EPWM3_TZ_ISR(void)                                      
; 578 | //                                                                     
; 579 | // Insert ISR Code here                                                
; 580 | //                                                                     
; 582 | //                                                                     
; 583 | // To receive more interrupts from this PIE group,                     
; 584 | // acknowledge this interrupt.                                         
; 585 | // PieCtrlRegs.PIEACK.all = PIEACK_GROUP2;                             
; 586 | //                                                                     
; 588 | //                                                                     
; 589 | // Next two lines for debug only to halt the processor here            
; 590 | // Remove after inserting ISR Code                                     
; 591 | //                                                                     
;----------------------------------------------------------------------

;***************************************************************
;* FNAME: _EPWM3_TZ_ISR                 FR SIZE:   4           *
;*                                                             *
;* FUNCTION ENVIRONMENT                                        *
;*                                                             *
;* FUNCTION PROPERTIES                                         *
;*                            0 Parameter,  0 Auto,  4 SOE     *
;***************************************************************

_EPWM3_TZ_ISR:
	.dwcfi	cfa_offset, -2
	.dwcfi	save_reg_to_mem, 26, 0
        ASP       ; [CPU_] 
        PUSH      RB                    ; [CPU_] 
	.dwcfi	save_reg_to_mem, 73, 2
	.dwcfi	save_reg_to_mem, 74, 3
	.dwcfi	cfa_offset, -4
        MOV32     *SP++,STF             ; [CPU_] 
	.dwcfi	save_reg_to_mem, 39, 4
	.dwcfi	save_reg_to_mem, 40, 5
	.dwcfi	cfa_offset, -6
        SETFLG    RNDF32=1, RNDF64=1    ; [CPU_] 
        CLRC      PAGE0,OVM             ; [CPU_] 
        CLRC      AMODE                 ; [CPU_] 
	.dwpsn	file "C:/ti/controlSUITE/device_support/F2837xD/v210/F2837xD_common/source/F2837xD_DefaultISR.c",line 592,column 5,is_stmt,isa 0
;----------------------------------------------------------------------
; 592 | asm ("      ESTOP0");                                                  
;----------------------------------------------------------------------
      ESTOP0
$C$L30:    
	.dwpsn	file "C:/ti/controlSUITE/device_support/F2837xD/v210/F2837xD_common/source/F2837xD_DefaultISR.c",line 593,column 5,is_stmt,isa 0
;----------------------------------------------------------------------
; 593 | for(;;);                                                               
;----------------------------------------------------------------------
        B         $C$L30,UNC            ; [CPU_] |593| 
        ; branch occurs ; [] |593| 
	.dwattr $C$DW$30, DW_AT_TI_end_file("C:/ti/controlSUITE/device_support/F2837xD/v210/F2837xD_common/source/F2837xD_DefaultISR.c")
	.dwattr $C$DW$30, DW_AT_TI_end_line(0x252)
	.dwattr $C$DW$30, DW_AT_TI_end_column(0x01)
	.dwendentry
	.dwendtag $C$DW$30

	.sect	".text:retain"
	.retain
	.retainrefs
	.global	_EPWM4_TZ_ISR

$C$DW$31	.dwtag  DW_TAG_subprogram
	.dwattr $C$DW$31, DW_AT_name("EPWM4_TZ_ISR")
	.dwattr $C$DW$31, DW_AT_low_pc(_EPWM4_TZ_ISR)
	.dwattr $C$DW$31, DW_AT_high_pc(0x00)
	.dwattr $C$DW$31, DW_AT_TI_symbol_name("_EPWM4_TZ_ISR")
	.dwattr $C$DW$31, DW_AT_external
	.dwattr $C$DW$31, DW_AT_TI_begin_file("C:/ti/controlSUITE/device_support/F2837xD/v210/F2837xD_common/source/F2837xD_DefaultISR.c")
	.dwattr $C$DW$31, DW_AT_TI_begin_line(0x257)
	.dwattr $C$DW$31, DW_AT_TI_begin_column(0x10)
	.dwattr $C$DW$31, DW_AT_TI_interrupt
	.dwattr $C$DW$31, DW_AT_TI_max_frame_size(-6)
	.dwpsn	file "C:/ti/controlSUITE/device_support/F2837xD/v210/F2837xD_common/source/F2837xD_DefaultISR.c",line 600,column 1,is_stmt,address _EPWM4_TZ_ISR,isa 0

	.dwfde $C$DW$CIE, _EPWM4_TZ_ISR
;----------------------------------------------------------------------
; 599 | interrupt void EPWM4_TZ_ISR(void)                                      
; 601 | //                                                                     
; 602 | // Insert ISR Code here                                                
; 603 | //                                                                     
; 605 | //                                                                     
; 606 | // To receive more interrupts from this PIE group,                     
; 607 | // acknowledge this interrupt.                                         
; 608 | // PieCtrlRegs.PIEACK.all = PIEACK_GROUP2;                             
; 609 | //                                                                     
; 611 | //                                                                     
; 612 | // Next two lines for debug only to halt the processor here            
; 613 | // Remove after inserting ISR Code                                     
; 614 | //                                                                     
;----------------------------------------------------------------------

;***************************************************************
;* FNAME: _EPWM4_TZ_ISR                 FR SIZE:   4           *
;*                                                             *
;* FUNCTION ENVIRONMENT                                        *
;*                                                             *
;* FUNCTION PROPERTIES                                         *
;*                            0 Parameter,  0 Auto,  4 SOE     *
;***************************************************************

_EPWM4_TZ_ISR:
	.dwcfi	cfa_offset, -2
	.dwcfi	save_reg_to_mem, 26, 0
        ASP       ; [CPU_] 
        PUSH      RB                    ; [CPU_] 
	.dwcfi	save_reg_to_mem, 73, 2
	.dwcfi	save_reg_to_mem, 74, 3
	.dwcfi	cfa_offset, -4
        MOV32     *SP++,STF             ; [CPU_] 
	.dwcfi	save_reg_to_mem, 39, 4
	.dwcfi	save_reg_to_mem, 40, 5
	.dwcfi	cfa_offset, -6
        SETFLG    RNDF32=1, RNDF64=1    ; [CPU_] 
        CLRC      PAGE0,OVM             ; [CPU_] 
        CLRC      AMODE                 ; [CPU_] 
	.dwpsn	file "C:/ti/controlSUITE/device_support/F2837xD/v210/F2837xD_common/source/F2837xD_DefaultISR.c",line 615,column 5,is_stmt,isa 0
;----------------------------------------------------------------------
; 615 | asm ("      ESTOP0");                                                  
;----------------------------------------------------------------------
      ESTOP0
$C$L31:    
	.dwpsn	file "C:/ti/controlSUITE/device_support/F2837xD/v210/F2837xD_common/source/F2837xD_DefaultISR.c",line 616,column 5,is_stmt,isa 0
;----------------------------------------------------------------------
; 616 | for(;;);                                                               
;----------------------------------------------------------------------
        B         $C$L31,UNC            ; [CPU_] |616| 
        ; branch occurs ; [] |616| 
	.dwattr $C$DW$31, DW_AT_TI_end_file("C:/ti/controlSUITE/device_support/F2837xD/v210/F2837xD_common/source/F2837xD_DefaultISR.c")
	.dwattr $C$DW$31, DW_AT_TI_end_line(0x269)
	.dwattr $C$DW$31, DW_AT_TI_end_column(0x01)
	.dwendentry
	.dwendtag $C$DW$31

	.sect	".text:retain"
	.retain
	.retainrefs
	.global	_EPWM5_TZ_ISR

$C$DW$32	.dwtag  DW_TAG_subprogram
	.dwattr $C$DW$32, DW_AT_name("EPWM5_TZ_ISR")
	.dwattr $C$DW$32, DW_AT_low_pc(_EPWM5_TZ_ISR)
	.dwattr $C$DW$32, DW_AT_high_pc(0x00)
	.dwattr $C$DW$32, DW_AT_TI_symbol_name("_EPWM5_TZ_ISR")
	.dwattr $C$DW$32, DW_AT_external
	.dwattr $C$DW$32, DW_AT_TI_begin_file("C:/ti/controlSUITE/device_support/F2837xD/v210/F2837xD_common/source/F2837xD_DefaultISR.c")
	.dwattr $C$DW$32, DW_AT_TI_begin_line(0x26e)
	.dwattr $C$DW$32, DW_AT_TI_begin_column(0x10)
	.dwattr $C$DW$32, DW_AT_TI_interrupt
	.dwattr $C$DW$32, DW_AT_TI_max_frame_size(-6)
	.dwpsn	file "C:/ti/controlSUITE/device_support/F2837xD/v210/F2837xD_common/source/F2837xD_DefaultISR.c",line 623,column 1,is_stmt,address _EPWM5_TZ_ISR,isa 0

	.dwfde $C$DW$CIE, _EPWM5_TZ_ISR
;----------------------------------------------------------------------
; 622 | interrupt void EPWM5_TZ_ISR(void)                                      
; 624 | //                                                                     
; 625 | // Insert ISR Code here                                                
; 626 | //                                                                     
; 628 | //                                                                     
; 629 | // To receive more interrupts from this PIE group,                     
; 630 | // acknowledge this interrupt.                                         
; 631 | // PieCtrlRegs.PIEACK.all = PIEACK_GROUP2;                             
; 632 | //                                                                     
; 634 | //                                                                     
; 635 | // Next two lines for debug only to halt the processor here            
; 636 | // Remove after inserting ISR Code                                     
; 637 | //                                                                     
;----------------------------------------------------------------------

;***************************************************************
;* FNAME: _EPWM5_TZ_ISR                 FR SIZE:   4           *
;*                                                             *
;* FUNCTION ENVIRONMENT                                        *
;*                                                             *
;* FUNCTION PROPERTIES                                         *
;*                            0 Parameter,  0 Auto,  4 SOE     *
;***************************************************************

_EPWM5_TZ_ISR:
	.dwcfi	cfa_offset, -2
	.dwcfi	save_reg_to_mem, 26, 0
        ASP       ; [CPU_] 
        PUSH      RB                    ; [CPU_] 
	.dwcfi	save_reg_to_mem, 73, 2
	.dwcfi	save_reg_to_mem, 74, 3
	.dwcfi	cfa_offset, -4
        MOV32     *SP++,STF             ; [CPU_] 
	.dwcfi	save_reg_to_mem, 39, 4
	.dwcfi	save_reg_to_mem, 40, 5
	.dwcfi	cfa_offset, -6
        SETFLG    RNDF32=1, RNDF64=1    ; [CPU_] 
        CLRC      PAGE0,OVM             ; [CPU_] 
        CLRC      AMODE                 ; [CPU_] 
	.dwpsn	file "C:/ti/controlSUITE/device_support/F2837xD/v210/F2837xD_common/source/F2837xD_DefaultISR.c",line 638,column 5,is_stmt,isa 0
;----------------------------------------------------------------------
; 638 | asm ("      ESTOP0");                                                  
;----------------------------------------------------------------------
      ESTOP0
$C$L32:    
	.dwpsn	file "C:/ti/controlSUITE/device_support/F2837xD/v210/F2837xD_common/source/F2837xD_DefaultISR.c",line 639,column 5,is_stmt,isa 0
;----------------------------------------------------------------------
; 639 | for(;;);                                                               
;----------------------------------------------------------------------
        B         $C$L32,UNC            ; [CPU_] |639| 
        ; branch occurs ; [] |639| 
	.dwattr $C$DW$32, DW_AT_TI_end_file("C:/ti/controlSUITE/device_support/F2837xD/v210/F2837xD_common/source/F2837xD_DefaultISR.c")
	.dwattr $C$DW$32, DW_AT_TI_end_line(0x280)
	.dwattr $C$DW$32, DW_AT_TI_end_column(0x01)
	.dwendentry
	.dwendtag $C$DW$32

	.sect	".text:retain"
	.retain
	.retainrefs
	.global	_EPWM6_TZ_ISR

$C$DW$33	.dwtag  DW_TAG_subprogram
	.dwattr $C$DW$33, DW_AT_name("EPWM6_TZ_ISR")
	.dwattr $C$DW$33, DW_AT_low_pc(_EPWM6_TZ_ISR)
	.dwattr $C$DW$33, DW_AT_high_pc(0x00)
	.dwattr $C$DW$33, DW_AT_TI_symbol_name("_EPWM6_TZ_ISR")
	.dwattr $C$DW$33, DW_AT_external
	.dwattr $C$DW$33, DW_AT_TI_begin_file("C:/ti/controlSUITE/device_support/F2837xD/v210/F2837xD_common/source/F2837xD_DefaultISR.c")
	.dwattr $C$DW$33, DW_AT_TI_begin_line(0x285)
	.dwattr $C$DW$33, DW_AT_TI_begin_column(0x10)
	.dwattr $C$DW$33, DW_AT_TI_interrupt
	.dwattr $C$DW$33, DW_AT_TI_max_frame_size(-6)
	.dwpsn	file "C:/ti/controlSUITE/device_support/F2837xD/v210/F2837xD_common/source/F2837xD_DefaultISR.c",line 646,column 1,is_stmt,address _EPWM6_TZ_ISR,isa 0

	.dwfde $C$DW$CIE, _EPWM6_TZ_ISR
;----------------------------------------------------------------------
; 645 | interrupt void EPWM6_TZ_ISR(void)                                      
; 647 | //                                                                     
; 648 | // Insert ISR Code here                                                
; 649 | //                                                                     
; 651 | //                                                                     
; 652 | // To receive more interrupts from this PIE group,                     
; 653 | // acknowledge this interrupt.                                         
; 654 | // PieCtrlRegs.PIEACK.all = PIEACK_GROUP2;                             
; 655 | //                                                                     
; 657 | //                                                                     
; 658 | // Next two lines for debug only to halt the processor here            
; 659 | // Remove after inserting ISR Code                                     
; 660 | //                                                                     
;----------------------------------------------------------------------

;***************************************************************
;* FNAME: _EPWM6_TZ_ISR                 FR SIZE:   4           *
;*                                                             *
;* FUNCTION ENVIRONMENT                                        *
;*                                                             *
;* FUNCTION PROPERTIES                                         *
;*                            0 Parameter,  0 Auto,  4 SOE     *
;***************************************************************

_EPWM6_TZ_ISR:
	.dwcfi	cfa_offset, -2
	.dwcfi	save_reg_to_mem, 26, 0
        ASP       ; [CPU_] 
        PUSH      RB                    ; [CPU_] 
	.dwcfi	save_reg_to_mem, 73, 2
	.dwcfi	save_reg_to_mem, 74, 3
	.dwcfi	cfa_offset, -4
        MOV32     *SP++,STF             ; [CPU_] 
	.dwcfi	save_reg_to_mem, 39, 4
	.dwcfi	save_reg_to_mem, 40, 5
	.dwcfi	cfa_offset, -6
        SETFLG    RNDF32=1, RNDF64=1    ; [CPU_] 
        CLRC      PAGE0,OVM             ; [CPU_] 
        CLRC      AMODE                 ; [CPU_] 
	.dwpsn	file "C:/ti/controlSUITE/device_support/F2837xD/v210/F2837xD_common/source/F2837xD_DefaultISR.c",line 661,column 5,is_stmt,isa 0
;----------------------------------------------------------------------
; 661 | asm ("      ESTOP0");                                                  
;----------------------------------------------------------------------
      ESTOP0
$C$L33:    
	.dwpsn	file "C:/ti/controlSUITE/device_support/F2837xD/v210/F2837xD_common/source/F2837xD_DefaultISR.c",line 662,column 5,is_stmt,isa 0
;----------------------------------------------------------------------
; 662 | for(;;);                                                               
;----------------------------------------------------------------------
        B         $C$L33,UNC            ; [CPU_] |662| 
        ; branch occurs ; [] |662| 
	.dwattr $C$DW$33, DW_AT_TI_end_file("C:/ti/controlSUITE/device_support/F2837xD/v210/F2837xD_common/source/F2837xD_DefaultISR.c")
	.dwattr $C$DW$33, DW_AT_TI_end_line(0x297)
	.dwattr $C$DW$33, DW_AT_TI_end_column(0x01)
	.dwendentry
	.dwendtag $C$DW$33

	.sect	".text:retain"
	.retain
	.retainrefs
	.global	_EPWM7_TZ_ISR

$C$DW$34	.dwtag  DW_TAG_subprogram
	.dwattr $C$DW$34, DW_AT_name("EPWM7_TZ_ISR")
	.dwattr $C$DW$34, DW_AT_low_pc(_EPWM7_TZ_ISR)
	.dwattr $C$DW$34, DW_AT_high_pc(0x00)
	.dwattr $C$DW$34, DW_AT_TI_symbol_name("_EPWM7_TZ_ISR")
	.dwattr $C$DW$34, DW_AT_external
	.dwattr $C$DW$34, DW_AT_TI_begin_file("C:/ti/controlSUITE/device_support/F2837xD/v210/F2837xD_common/source/F2837xD_DefaultISR.c")
	.dwattr $C$DW$34, DW_AT_TI_begin_line(0x29c)
	.dwattr $C$DW$34, DW_AT_TI_begin_column(0x10)
	.dwattr $C$DW$34, DW_AT_TI_interrupt
	.dwattr $C$DW$34, DW_AT_TI_max_frame_size(-6)
	.dwpsn	file "C:/ti/controlSUITE/device_support/F2837xD/v210/F2837xD_common/source/F2837xD_DefaultISR.c",line 669,column 1,is_stmt,address _EPWM7_TZ_ISR,isa 0

	.dwfde $C$DW$CIE, _EPWM7_TZ_ISR
;----------------------------------------------------------------------
; 668 | interrupt void EPWM7_TZ_ISR(void)                                      
; 670 | //                                                                     
; 671 | // Insert ISR Code here                                                
; 672 | //                                                                     
; 674 | //                                                                     
; 675 | // To receive more interrupts from this PIE group,                     
; 676 | // acknowledge this interrupt.                                         
; 677 | // PieCtrlRegs.PIEACK.all = PIEACK_GROUP2;                             
; 678 | //                                                                     
; 680 | //                                                                     
; 681 | // Next two lines for debug only to halt the processor here            
; 682 | // Remove after inserting ISR Code                                     
; 683 | //                                                                     
;----------------------------------------------------------------------

;***************************************************************
;* FNAME: _EPWM7_TZ_ISR                 FR SIZE:   4           *
;*                                                             *
;* FUNCTION ENVIRONMENT                                        *
;*                                                             *
;* FUNCTION PROPERTIES                                         *
;*                            0 Parameter,  0 Auto,  4 SOE     *
;***************************************************************

_EPWM7_TZ_ISR:
	.dwcfi	cfa_offset, -2
	.dwcfi	save_reg_to_mem, 26, 0
        ASP       ; [CPU_] 
        PUSH      RB                    ; [CPU_] 
	.dwcfi	save_reg_to_mem, 73, 2
	.dwcfi	save_reg_to_mem, 74, 3
	.dwcfi	cfa_offset, -4
        MOV32     *SP++,STF             ; [CPU_] 
	.dwcfi	save_reg_to_mem, 39, 4
	.dwcfi	save_reg_to_mem, 40, 5
	.dwcfi	cfa_offset, -6
        SETFLG    RNDF32=1, RNDF64=1    ; [CPU_] 
        CLRC      PAGE0,OVM             ; [CPU_] 
        CLRC      AMODE                 ; [CPU_] 
	.dwpsn	file "C:/ti/controlSUITE/device_support/F2837xD/v210/F2837xD_common/source/F2837xD_DefaultISR.c",line 684,column 5,is_stmt,isa 0
;----------------------------------------------------------------------
; 684 | asm ("      ESTOP0");                                                  
;----------------------------------------------------------------------
      ESTOP0
$C$L34:    
	.dwpsn	file "C:/ti/controlSUITE/device_support/F2837xD/v210/F2837xD_common/source/F2837xD_DefaultISR.c",line 685,column 5,is_stmt,isa 0
;----------------------------------------------------------------------
; 685 | for(;;);                                                               
;----------------------------------------------------------------------
        B         $C$L34,UNC            ; [CPU_] |685| 
        ; branch occurs ; [] |685| 
	.dwattr $C$DW$34, DW_AT_TI_end_file("C:/ti/controlSUITE/device_support/F2837xD/v210/F2837xD_common/source/F2837xD_DefaultISR.c")
	.dwattr $C$DW$34, DW_AT_TI_end_line(0x2ae)
	.dwattr $C$DW$34, DW_AT_TI_end_column(0x01)
	.dwendentry
	.dwendtag $C$DW$34

	.sect	".text:retain"
	.retain
	.retainrefs
	.global	_EPWM8_TZ_ISR

$C$DW$35	.dwtag  DW_TAG_subprogram
	.dwattr $C$DW$35, DW_AT_name("EPWM8_TZ_ISR")
	.dwattr $C$DW$35, DW_AT_low_pc(_EPWM8_TZ_ISR)
	.dwattr $C$DW$35, DW_AT_high_pc(0x00)
	.dwattr $C$DW$35, DW_AT_TI_symbol_name("_EPWM8_TZ_ISR")
	.dwattr $C$DW$35, DW_AT_external
	.dwattr $C$DW$35, DW_AT_TI_begin_file("C:/ti/controlSUITE/device_support/F2837xD/v210/F2837xD_common/source/F2837xD_DefaultISR.c")
	.dwattr $C$DW$35, DW_AT_TI_begin_line(0x2b3)
	.dwattr $C$DW$35, DW_AT_TI_begin_column(0x10)
	.dwattr $C$DW$35, DW_AT_TI_interrupt
	.dwattr $C$DW$35, DW_AT_TI_max_frame_size(-6)
	.dwpsn	file "C:/ti/controlSUITE/device_support/F2837xD/v210/F2837xD_common/source/F2837xD_DefaultISR.c",line 692,column 1,is_stmt,address _EPWM8_TZ_ISR,isa 0

	.dwfde $C$DW$CIE, _EPWM8_TZ_ISR
;----------------------------------------------------------------------
; 691 | interrupt void EPWM8_TZ_ISR(void)                                      
; 693 | //                                                                     
; 694 | // Insert ISR Code here                                                
; 695 | //                                                                     
; 697 | //                                                                     
; 698 | // To receive more interrupts from this PIE group,                     
; 699 | // acknowledge this interrupt.                                         
; 700 | // PieCtrlRegs.PIEACK.all = PIEACK_GROUP2;                             
; 701 | //                                                                     
; 703 | //                                                                     
; 704 | // Next two lines for debug only to halt the processor here            
; 705 | // Remove after inserting ISR Code                                     
; 706 | //                                                                     
;----------------------------------------------------------------------

;***************************************************************
;* FNAME: _EPWM8_TZ_ISR                 FR SIZE:   4           *
;*                                                             *
;* FUNCTION ENVIRONMENT                                        *
;*                                                             *
;* FUNCTION PROPERTIES                                         *
;*                            0 Parameter,  0 Auto,  4 SOE     *
;***************************************************************

_EPWM8_TZ_ISR:
	.dwcfi	cfa_offset, -2
	.dwcfi	save_reg_to_mem, 26, 0
        ASP       ; [CPU_] 
        PUSH      RB                    ; [CPU_] 
	.dwcfi	save_reg_to_mem, 73, 2
	.dwcfi	save_reg_to_mem, 74, 3
	.dwcfi	cfa_offset, -4
        MOV32     *SP++,STF             ; [CPU_] 
	.dwcfi	save_reg_to_mem, 39, 4
	.dwcfi	save_reg_to_mem, 40, 5
	.dwcfi	cfa_offset, -6
        SETFLG    RNDF32=1, RNDF64=1    ; [CPU_] 
        CLRC      PAGE0,OVM             ; [CPU_] 
        CLRC      AMODE                 ; [CPU_] 
	.dwpsn	file "C:/ti/controlSUITE/device_support/F2837xD/v210/F2837xD_common/source/F2837xD_DefaultISR.c",line 707,column 5,is_stmt,isa 0
;----------------------------------------------------------------------
; 707 | asm ("      ESTOP0");                                                  
;----------------------------------------------------------------------
      ESTOP0
$C$L35:    
	.dwpsn	file "C:/ti/controlSUITE/device_support/F2837xD/v210/F2837xD_common/source/F2837xD_DefaultISR.c",line 708,column 5,is_stmt,isa 0
;----------------------------------------------------------------------
; 708 | for(;;);                                                               
;----------------------------------------------------------------------
        B         $C$L35,UNC            ; [CPU_] |708| 
        ; branch occurs ; [] |708| 
	.dwattr $C$DW$35, DW_AT_TI_end_file("C:/ti/controlSUITE/device_support/F2837xD/v210/F2837xD_common/source/F2837xD_DefaultISR.c")
	.dwattr $C$DW$35, DW_AT_TI_end_line(0x2c5)
	.dwattr $C$DW$35, DW_AT_TI_end_column(0x01)
	.dwendentry
	.dwendtag $C$DW$35

	.sect	".text:retain"
	.retain
	.retainrefs
	.global	_EPWM1_ISR

$C$DW$36	.dwtag  DW_TAG_subprogram
	.dwattr $C$DW$36, DW_AT_name("EPWM1_ISR")
	.dwattr $C$DW$36, DW_AT_low_pc(_EPWM1_ISR)
	.dwattr $C$DW$36, DW_AT_high_pc(0x00)
	.dwattr $C$DW$36, DW_AT_TI_symbol_name("_EPWM1_ISR")
	.dwattr $C$DW$36, DW_AT_external
	.dwattr $C$DW$36, DW_AT_TI_begin_file("C:/ti/controlSUITE/device_support/F2837xD/v210/F2837xD_common/source/F2837xD_DefaultISR.c")
	.dwattr $C$DW$36, DW_AT_TI_begin_line(0x2ca)
	.dwattr $C$DW$36, DW_AT_TI_begin_column(0x10)
	.dwattr $C$DW$36, DW_AT_TI_interrupt
	.dwattr $C$DW$36, DW_AT_TI_max_frame_size(-6)
	.dwpsn	file "C:/ti/controlSUITE/device_support/F2837xD/v210/F2837xD_common/source/F2837xD_DefaultISR.c",line 715,column 1,is_stmt,address _EPWM1_ISR,isa 0

	.dwfde $C$DW$CIE, _EPWM1_ISR
;----------------------------------------------------------------------
; 714 | interrupt void EPWM1_ISR(void)                                         
; 716 | //                                                                     
; 717 | // Insert ISR Code here                                                
; 718 | //                                                                     
; 720 | //                                                                     
; 721 | // To receive more interrupts from this PIE group,                     
; 722 | // acknowledge this interrupt.                                         
; 723 | // PieCtrlRegs.PIEACK.all = PIEACK_GROUP3;                             
; 724 | //                                                                     
; 726 | //                                                                     
; 727 | // Next two lines for debug only to halt the processor here            
; 728 | // Remove after inserting ISR Code                                     
; 729 | //                                                                     
;----------------------------------------------------------------------

;***************************************************************
;* FNAME: _EPWM1_ISR                    FR SIZE:   4           *
;*                                                             *
;* FUNCTION ENVIRONMENT                                        *
;*                                                             *
;* FUNCTION PROPERTIES                                         *
;*                            0 Parameter,  0 Auto,  4 SOE     *
;***************************************************************

_EPWM1_ISR:
	.dwcfi	cfa_offset, -2
	.dwcfi	save_reg_to_mem, 26, 0
        ASP       ; [CPU_] 
        PUSH      RB                    ; [CPU_] 
	.dwcfi	save_reg_to_mem, 73, 2
	.dwcfi	save_reg_to_mem, 74, 3
	.dwcfi	cfa_offset, -4
        MOV32     *SP++,STF             ; [CPU_] 
	.dwcfi	save_reg_to_mem, 39, 4
	.dwcfi	save_reg_to_mem, 40, 5
	.dwcfi	cfa_offset, -6
        SETFLG    RNDF32=1, RNDF64=1    ; [CPU_] 
        CLRC      PAGE0,OVM             ; [CPU_] 
        CLRC      AMODE                 ; [CPU_] 
	.dwpsn	file "C:/ti/controlSUITE/device_support/F2837xD/v210/F2837xD_common/source/F2837xD_DefaultISR.c",line 730,column 5,is_stmt,isa 0
;----------------------------------------------------------------------
; 730 | asm ("      ESTOP0");                                                  
;----------------------------------------------------------------------
      ESTOP0
$C$L36:    
	.dwpsn	file "C:/ti/controlSUITE/device_support/F2837xD/v210/F2837xD_common/source/F2837xD_DefaultISR.c",line 731,column 5,is_stmt,isa 0
;----------------------------------------------------------------------
; 731 | for(;;);                                                               
;----------------------------------------------------------------------
        B         $C$L36,UNC            ; [CPU_] |731| 
        ; branch occurs ; [] |731| 
	.dwattr $C$DW$36, DW_AT_TI_end_file("C:/ti/controlSUITE/device_support/F2837xD/v210/F2837xD_common/source/F2837xD_DefaultISR.c")
	.dwattr $C$DW$36, DW_AT_TI_end_line(0x2dc)
	.dwattr $C$DW$36, DW_AT_TI_end_column(0x01)
	.dwendentry
	.dwendtag $C$DW$36

	.sect	".text:retain"
	.retain
	.retainrefs
	.global	_EPWM2_ISR

$C$DW$37	.dwtag  DW_TAG_subprogram
	.dwattr $C$DW$37, DW_AT_name("EPWM2_ISR")
	.dwattr $C$DW$37, DW_AT_low_pc(_EPWM2_ISR)
	.dwattr $C$DW$37, DW_AT_high_pc(0x00)
	.dwattr $C$DW$37, DW_AT_TI_symbol_name("_EPWM2_ISR")
	.dwattr $C$DW$37, DW_AT_external
	.dwattr $C$DW$37, DW_AT_TI_begin_file("C:/ti/controlSUITE/device_support/F2837xD/v210/F2837xD_common/source/F2837xD_DefaultISR.c")
	.dwattr $C$DW$37, DW_AT_TI_begin_line(0x2e1)
	.dwattr $C$DW$37, DW_AT_TI_begin_column(0x10)
	.dwattr $C$DW$37, DW_AT_TI_interrupt
	.dwattr $C$DW$37, DW_AT_TI_max_frame_size(-6)
	.dwpsn	file "C:/ti/controlSUITE/device_support/F2837xD/v210/F2837xD_common/source/F2837xD_DefaultISR.c",line 738,column 1,is_stmt,address _EPWM2_ISR,isa 0

	.dwfde $C$DW$CIE, _EPWM2_ISR
;----------------------------------------------------------------------
; 737 | interrupt void EPWM2_ISR(void)                                         
; 739 | //                                                                     
; 740 | // Insert ISR Code here                                                
; 741 | //                                                                     
; 743 | //                                                                     
; 744 | // To receive more interrupts from this PIE group,                     
; 745 | // acknowledge this interrupt.                                         
; 746 | // PieCtrlRegs.PIEACK.all = PIEACK_GROUP3;                             
; 747 | //                                                                     
; 749 | //                                                                     
; 750 | // Next two lines for debug only to halt the processor here            
; 751 | // Remove after inserting ISR Code                                     
; 752 | //                                                                     
;----------------------------------------------------------------------

;***************************************************************
;* FNAME: _EPWM2_ISR                    FR SIZE:   4           *
;*                                                             *
;* FUNCTION ENVIRONMENT                                        *
;*                                                             *
;* FUNCTION PROPERTIES                                         *
;*                            0 Parameter,  0 Auto,  4 SOE     *
;***************************************************************

_EPWM2_ISR:
	.dwcfi	cfa_offset, -2
	.dwcfi	save_reg_to_mem, 26, 0
        ASP       ; [CPU_] 
        PUSH      RB                    ; [CPU_] 
	.dwcfi	save_reg_to_mem, 73, 2
	.dwcfi	save_reg_to_mem, 74, 3
	.dwcfi	cfa_offset, -4
        MOV32     *SP++,STF             ; [CPU_] 
	.dwcfi	save_reg_to_mem, 39, 4
	.dwcfi	save_reg_to_mem, 40, 5
	.dwcfi	cfa_offset, -6
        SETFLG    RNDF32=1, RNDF64=1    ; [CPU_] 
        CLRC      PAGE0,OVM             ; [CPU_] 
        CLRC      AMODE                 ; [CPU_] 
	.dwpsn	file "C:/ti/controlSUITE/device_support/F2837xD/v210/F2837xD_common/source/F2837xD_DefaultISR.c",line 753,column 5,is_stmt,isa 0
;----------------------------------------------------------------------
; 753 | asm ("      ESTOP0");                                                  
;----------------------------------------------------------------------
      ESTOP0
$C$L37:    
	.dwpsn	file "C:/ti/controlSUITE/device_support/F2837xD/v210/F2837xD_common/source/F2837xD_DefaultISR.c",line 754,column 5,is_stmt,isa 0
;----------------------------------------------------------------------
; 754 | for(;;);                                                               
;----------------------------------------------------------------------
        B         $C$L37,UNC            ; [CPU_] |754| 
        ; branch occurs ; [] |754| 
	.dwattr $C$DW$37, DW_AT_TI_end_file("C:/ti/controlSUITE/device_support/F2837xD/v210/F2837xD_common/source/F2837xD_DefaultISR.c")
	.dwattr $C$DW$37, DW_AT_TI_end_line(0x2f3)
	.dwattr $C$DW$37, DW_AT_TI_end_column(0x01)
	.dwendentry
	.dwendtag $C$DW$37

	.sect	".text:retain"
	.retain
	.retainrefs
	.global	_EPWM3_ISR

$C$DW$38	.dwtag  DW_TAG_subprogram
	.dwattr $C$DW$38, DW_AT_name("EPWM3_ISR")
	.dwattr $C$DW$38, DW_AT_low_pc(_EPWM3_ISR)
	.dwattr $C$DW$38, DW_AT_high_pc(0x00)
	.dwattr $C$DW$38, DW_AT_TI_symbol_name("_EPWM3_ISR")
	.dwattr $C$DW$38, DW_AT_external
	.dwattr $C$DW$38, DW_AT_TI_begin_file("C:/ti/controlSUITE/device_support/F2837xD/v210/F2837xD_common/source/F2837xD_DefaultISR.c")
	.dwattr $C$DW$38, DW_AT_TI_begin_line(0x2f8)
	.dwattr $C$DW$38, DW_AT_TI_begin_column(0x10)
	.dwattr $C$DW$38, DW_AT_TI_interrupt
	.dwattr $C$DW$38, DW_AT_TI_max_frame_size(-6)
	.dwpsn	file "C:/ti/controlSUITE/device_support/F2837xD/v210/F2837xD_common/source/F2837xD_DefaultISR.c",line 761,column 1,is_stmt,address _EPWM3_ISR,isa 0

	.dwfde $C$DW$CIE, _EPWM3_ISR
;----------------------------------------------------------------------
; 760 | interrupt void EPWM3_ISR(void)                                         
; 762 | //                                                                     
; 763 | // Insert ISR Code here                                                
; 764 | //                                                                     
; 766 | //                                                                     
; 767 | // To receive more interrupts from this PIE group,                     
; 768 | // acknowledge this interrupt.                                         
; 769 | // PieCtrlRegs.PIEACK.all = PIEACK_GROUP3;                             
; 770 | //                                                                     
; 772 | //                                                                     
; 773 | // Next two lines for debug only to halt the processor here            
; 774 | // Remove after inserting ISR Code                                     
; 775 | //                                                                     
;----------------------------------------------------------------------

;***************************************************************
;* FNAME: _EPWM3_ISR                    FR SIZE:   4           *
;*                                                             *
;* FUNCTION ENVIRONMENT                                        *
;*                                                             *
;* FUNCTION PROPERTIES                                         *
;*                            0 Parameter,  0 Auto,  4 SOE     *
;***************************************************************

_EPWM3_ISR:
	.dwcfi	cfa_offset, -2
	.dwcfi	save_reg_to_mem, 26, 0
        ASP       ; [CPU_] 
        PUSH      RB                    ; [CPU_] 
	.dwcfi	save_reg_to_mem, 73, 2
	.dwcfi	save_reg_to_mem, 74, 3
	.dwcfi	cfa_offset, -4
        MOV32     *SP++,STF             ; [CPU_] 
	.dwcfi	save_reg_to_mem, 39, 4
	.dwcfi	save_reg_to_mem, 40, 5
	.dwcfi	cfa_offset, -6
        SETFLG    RNDF32=1, RNDF64=1    ; [CPU_] 
        CLRC      PAGE0,OVM             ; [CPU_] 
        CLRC      AMODE                 ; [CPU_] 
	.dwpsn	file "C:/ti/controlSUITE/device_support/F2837xD/v210/F2837xD_common/source/F2837xD_DefaultISR.c",line 776,column 5,is_stmt,isa 0
;----------------------------------------------------------------------
; 776 | asm ("      ESTOP0");                                                  
;----------------------------------------------------------------------
      ESTOP0
$C$L38:    
	.dwpsn	file "C:/ti/controlSUITE/device_support/F2837xD/v210/F2837xD_common/source/F2837xD_DefaultISR.c",line 777,column 5,is_stmt,isa 0
;----------------------------------------------------------------------
; 777 | for(;;);                                                               
;----------------------------------------------------------------------
        B         $C$L38,UNC            ; [CPU_] |777| 
        ; branch occurs ; [] |777| 
	.dwattr $C$DW$38, DW_AT_TI_end_file("C:/ti/controlSUITE/device_support/F2837xD/v210/F2837xD_common/source/F2837xD_DefaultISR.c")
	.dwattr $C$DW$38, DW_AT_TI_end_line(0x30a)
	.dwattr $C$DW$38, DW_AT_TI_end_column(0x01)
	.dwendentry
	.dwendtag $C$DW$38

	.sect	".text:retain"
	.retain
	.retainrefs
	.global	_EPWM4_ISR

$C$DW$39	.dwtag  DW_TAG_subprogram
	.dwattr $C$DW$39, DW_AT_name("EPWM4_ISR")
	.dwattr $C$DW$39, DW_AT_low_pc(_EPWM4_ISR)
	.dwattr $C$DW$39, DW_AT_high_pc(0x00)
	.dwattr $C$DW$39, DW_AT_TI_symbol_name("_EPWM4_ISR")
	.dwattr $C$DW$39, DW_AT_external
	.dwattr $C$DW$39, DW_AT_TI_begin_file("C:/ti/controlSUITE/device_support/F2837xD/v210/F2837xD_common/source/F2837xD_DefaultISR.c")
	.dwattr $C$DW$39, DW_AT_TI_begin_line(0x30f)
	.dwattr $C$DW$39, DW_AT_TI_begin_column(0x10)
	.dwattr $C$DW$39, DW_AT_TI_interrupt
	.dwattr $C$DW$39, DW_AT_TI_max_frame_size(-6)
	.dwpsn	file "C:/ti/controlSUITE/device_support/F2837xD/v210/F2837xD_common/source/F2837xD_DefaultISR.c",line 784,column 1,is_stmt,address _EPWM4_ISR,isa 0

	.dwfde $C$DW$CIE, _EPWM4_ISR
;----------------------------------------------------------------------
; 783 | interrupt void EPWM4_ISR(void)                                         
; 785 | //                                                                     
; 786 | // Insert ISR Code here                                                
; 787 | //                                                                     
; 789 | //                                                                     
; 790 | // To receive more interrupts from this PIE group,                     
; 791 | // acknowledge this interrupt.                                         
; 792 | // PieCtrlRegs.PIEACK.all = PIEACK_GROUP3;                             
; 793 | //                                                                     
; 795 | //                                                                     
; 796 | // Next two lines for debug only to halt the processor here            
; 797 | // Remove after inserting ISR Code                                     
; 798 | //                                                                     
;----------------------------------------------------------------------

;***************************************************************
;* FNAME: _EPWM4_ISR                    FR SIZE:   4           *
;*                                                             *
;* FUNCTION ENVIRONMENT                                        *
;*                                                             *
;* FUNCTION PROPERTIES                                         *
;*                            0 Parameter,  0 Auto,  4 SOE     *
;***************************************************************

_EPWM4_ISR:
	.dwcfi	cfa_offset, -2
	.dwcfi	save_reg_to_mem, 26, 0
        ASP       ; [CPU_] 
        PUSH      RB                    ; [CPU_] 
	.dwcfi	save_reg_to_mem, 73, 2
	.dwcfi	save_reg_to_mem, 74, 3
	.dwcfi	cfa_offset, -4
        MOV32     *SP++,STF             ; [CPU_] 
	.dwcfi	save_reg_to_mem, 39, 4
	.dwcfi	save_reg_to_mem, 40, 5
	.dwcfi	cfa_offset, -6
        SETFLG    RNDF32=1, RNDF64=1    ; [CPU_] 
        CLRC      PAGE0,OVM             ; [CPU_] 
        CLRC      AMODE                 ; [CPU_] 
	.dwpsn	file "C:/ti/controlSUITE/device_support/F2837xD/v210/F2837xD_common/source/F2837xD_DefaultISR.c",line 799,column 5,is_stmt,isa 0
;----------------------------------------------------------------------
; 799 | asm ("      ESTOP0");                                                  
;----------------------------------------------------------------------
      ESTOP0
$C$L39:    
	.dwpsn	file "C:/ti/controlSUITE/device_support/F2837xD/v210/F2837xD_common/source/F2837xD_DefaultISR.c",line 800,column 5,is_stmt,isa 0
;----------------------------------------------------------------------
; 800 | for(;;);                                                               
;----------------------------------------------------------------------
        B         $C$L39,UNC            ; [CPU_] |800| 
        ; branch occurs ; [] |800| 
	.dwattr $C$DW$39, DW_AT_TI_end_file("C:/ti/controlSUITE/device_support/F2837xD/v210/F2837xD_common/source/F2837xD_DefaultISR.c")
	.dwattr $C$DW$39, DW_AT_TI_end_line(0x321)
	.dwattr $C$DW$39, DW_AT_TI_end_column(0x01)
	.dwendentry
	.dwendtag $C$DW$39

	.sect	".text:retain"
	.retain
	.retainrefs
	.global	_EPWM5_ISR

$C$DW$40	.dwtag  DW_TAG_subprogram
	.dwattr $C$DW$40, DW_AT_name("EPWM5_ISR")
	.dwattr $C$DW$40, DW_AT_low_pc(_EPWM5_ISR)
	.dwattr $C$DW$40, DW_AT_high_pc(0x00)
	.dwattr $C$DW$40, DW_AT_TI_symbol_name("_EPWM5_ISR")
	.dwattr $C$DW$40, DW_AT_external
	.dwattr $C$DW$40, DW_AT_TI_begin_file("C:/ti/controlSUITE/device_support/F2837xD/v210/F2837xD_common/source/F2837xD_DefaultISR.c")
	.dwattr $C$DW$40, DW_AT_TI_begin_line(0x326)
	.dwattr $C$DW$40, DW_AT_TI_begin_column(0x10)
	.dwattr $C$DW$40, DW_AT_TI_interrupt
	.dwattr $C$DW$40, DW_AT_TI_max_frame_size(-6)
	.dwpsn	file "C:/ti/controlSUITE/device_support/F2837xD/v210/F2837xD_common/source/F2837xD_DefaultISR.c",line 807,column 1,is_stmt,address _EPWM5_ISR,isa 0

	.dwfde $C$DW$CIE, _EPWM5_ISR
;----------------------------------------------------------------------
; 806 | interrupt void EPWM5_ISR(void)                                         
; 808 | //                                                                     
; 809 | // Insert ISR Code here                                                
; 810 | //                                                                     
; 812 | //                                                                     
; 813 | // To receive more interrupts from this PIE group,                     
; 814 | // acknowledge this interrupt.                                         
; 815 | // PieCtrlRegs.PIEACK.all = PIEACK_GROUP3;                             
; 816 | //                                                                     
; 818 | //                                                                     
; 819 | // Next two lines for debug only to halt the processor here            
; 820 | // Remove after inserting ISR Code                                     
; 821 | //                                                                     
;----------------------------------------------------------------------

;***************************************************************
;* FNAME: _EPWM5_ISR                    FR SIZE:   4           *
;*                                                             *
;* FUNCTION ENVIRONMENT                                        *
;*                                                             *
;* FUNCTION PROPERTIES                                         *
;*                            0 Parameter,  0 Auto,  4 SOE     *
;***************************************************************

_EPWM5_ISR:
	.dwcfi	cfa_offset, -2
	.dwcfi	save_reg_to_mem, 26, 0
        ASP       ; [CPU_] 
        PUSH      RB                    ; [CPU_] 
	.dwcfi	save_reg_to_mem, 73, 2
	.dwcfi	save_reg_to_mem, 74, 3
	.dwcfi	cfa_offset, -4
        MOV32     *SP++,STF             ; [CPU_] 
	.dwcfi	save_reg_to_mem, 39, 4
	.dwcfi	save_reg_to_mem, 40, 5
	.dwcfi	cfa_offset, -6
        SETFLG    RNDF32=1, RNDF64=1    ; [CPU_] 
        CLRC      PAGE0,OVM             ; [CPU_] 
        CLRC      AMODE                 ; [CPU_] 
	.dwpsn	file "C:/ti/controlSUITE/device_support/F2837xD/v210/F2837xD_common/source/F2837xD_DefaultISR.c",line 822,column 5,is_stmt,isa 0
;----------------------------------------------------------------------
; 822 | asm ("      ESTOP0");                                                  
;----------------------------------------------------------------------
      ESTOP0
$C$L40:    
	.dwpsn	file "C:/ti/controlSUITE/device_support/F2837xD/v210/F2837xD_common/source/F2837xD_DefaultISR.c",line 823,column 5,is_stmt,isa 0
;----------------------------------------------------------------------
; 823 | for(;;);                                                               
;----------------------------------------------------------------------
        B         $C$L40,UNC            ; [CPU_] |823| 
        ; branch occurs ; [] |823| 
	.dwattr $C$DW$40, DW_AT_TI_end_file("C:/ti/controlSUITE/device_support/F2837xD/v210/F2837xD_common/source/F2837xD_DefaultISR.c")
	.dwattr $C$DW$40, DW_AT_TI_end_line(0x338)
	.dwattr $C$DW$40, DW_AT_TI_end_column(0x01)
	.dwendentry
	.dwendtag $C$DW$40

	.sect	".text:retain"
	.retain
	.retainrefs
	.global	_EPWM6_ISR

$C$DW$41	.dwtag  DW_TAG_subprogram
	.dwattr $C$DW$41, DW_AT_name("EPWM6_ISR")
	.dwattr $C$DW$41, DW_AT_low_pc(_EPWM6_ISR)
	.dwattr $C$DW$41, DW_AT_high_pc(0x00)
	.dwattr $C$DW$41, DW_AT_TI_symbol_name("_EPWM6_ISR")
	.dwattr $C$DW$41, DW_AT_external
	.dwattr $C$DW$41, DW_AT_TI_begin_file("C:/ti/controlSUITE/device_support/F2837xD/v210/F2837xD_common/source/F2837xD_DefaultISR.c")
	.dwattr $C$DW$41, DW_AT_TI_begin_line(0x33d)
	.dwattr $C$DW$41, DW_AT_TI_begin_column(0x10)
	.dwattr $C$DW$41, DW_AT_TI_interrupt
	.dwattr $C$DW$41, DW_AT_TI_max_frame_size(-6)
	.dwpsn	file "C:/ti/controlSUITE/device_support/F2837xD/v210/F2837xD_common/source/F2837xD_DefaultISR.c",line 830,column 1,is_stmt,address _EPWM6_ISR,isa 0

	.dwfde $C$DW$CIE, _EPWM6_ISR
;----------------------------------------------------------------------
; 829 | interrupt void EPWM6_ISR(void)                                         
; 831 | //                                                                     
; 832 | // Insert ISR Code here                                                
; 833 | //                                                                     
; 835 | //                                                                     
; 836 | // To receive more interrupts from this PIE group,                     
; 837 | // acknowledge this interrupt.                                         
; 838 | // PieCtrlRegs.PIEACK.all = PIEACK_GROUP3;                             
; 839 | //                                                                     
; 841 | //                                                                     
; 842 | // Next two lines for debug only to halt the processor here            
; 843 | // Remove after inserting ISR Code                                     
; 844 | //                                                                     
;----------------------------------------------------------------------

;***************************************************************
;* FNAME: _EPWM6_ISR                    FR SIZE:   4           *
;*                                                             *
;* FUNCTION ENVIRONMENT                                        *
;*                                                             *
;* FUNCTION PROPERTIES                                         *
;*                            0 Parameter,  0 Auto,  4 SOE     *
;***************************************************************

_EPWM6_ISR:
	.dwcfi	cfa_offset, -2
	.dwcfi	save_reg_to_mem, 26, 0
        ASP       ; [CPU_] 
        PUSH      RB                    ; [CPU_] 
	.dwcfi	save_reg_to_mem, 73, 2
	.dwcfi	save_reg_to_mem, 74, 3
	.dwcfi	cfa_offset, -4
        MOV32     *SP++,STF             ; [CPU_] 
	.dwcfi	save_reg_to_mem, 39, 4
	.dwcfi	save_reg_to_mem, 40, 5
	.dwcfi	cfa_offset, -6
        SETFLG    RNDF32=1, RNDF64=1    ; [CPU_] 
        CLRC      PAGE0,OVM             ; [CPU_] 
        CLRC      AMODE                 ; [CPU_] 
	.dwpsn	file "C:/ti/controlSUITE/device_support/F2837xD/v210/F2837xD_common/source/F2837xD_DefaultISR.c",line 845,column 5,is_stmt,isa 0
;----------------------------------------------------------------------
; 845 | asm ("      ESTOP0");                                                  
;----------------------------------------------------------------------
      ESTOP0
$C$L41:    
	.dwpsn	file "C:/ti/controlSUITE/device_support/F2837xD/v210/F2837xD_common/source/F2837xD_DefaultISR.c",line 846,column 5,is_stmt,isa 0
;----------------------------------------------------------------------
; 846 | for(;;);                                                               
;----------------------------------------------------------------------
        B         $C$L41,UNC            ; [CPU_] |846| 
        ; branch occurs ; [] |846| 
	.dwattr $C$DW$41, DW_AT_TI_end_file("C:/ti/controlSUITE/device_support/F2837xD/v210/F2837xD_common/source/F2837xD_DefaultISR.c")
	.dwattr $C$DW$41, DW_AT_TI_end_line(0x34f)
	.dwattr $C$DW$41, DW_AT_TI_end_column(0x01)
	.dwendentry
	.dwendtag $C$DW$41

	.sect	".text:retain"
	.retain
	.retainrefs
	.global	_EPWM7_ISR

$C$DW$42	.dwtag  DW_TAG_subprogram
	.dwattr $C$DW$42, DW_AT_name("EPWM7_ISR")
	.dwattr $C$DW$42, DW_AT_low_pc(_EPWM7_ISR)
	.dwattr $C$DW$42, DW_AT_high_pc(0x00)
	.dwattr $C$DW$42, DW_AT_TI_symbol_name("_EPWM7_ISR")
	.dwattr $C$DW$42, DW_AT_external
	.dwattr $C$DW$42, DW_AT_TI_begin_file("C:/ti/controlSUITE/device_support/F2837xD/v210/F2837xD_common/source/F2837xD_DefaultISR.c")
	.dwattr $C$DW$42, DW_AT_TI_begin_line(0x354)
	.dwattr $C$DW$42, DW_AT_TI_begin_column(0x10)
	.dwattr $C$DW$42, DW_AT_TI_interrupt
	.dwattr $C$DW$42, DW_AT_TI_max_frame_size(-6)
	.dwpsn	file "C:/ti/controlSUITE/device_support/F2837xD/v210/F2837xD_common/source/F2837xD_DefaultISR.c",line 853,column 1,is_stmt,address _EPWM7_ISR,isa 0

	.dwfde $C$DW$CIE, _EPWM7_ISR
;----------------------------------------------------------------------
; 852 | interrupt void EPWM7_ISR(void)                                         
; 854 | //                                                                     
; 855 | // Insert ISR Code here                                                
; 856 | //                                                                     
; 858 | //                                                                     
; 859 | // To receive more interrupts from this PIE group,                     
; 860 | // acknowledge this interrupt.                                         
; 861 | // PieCtrlRegs.PIEACK.all = PIEACK_GROUP3;                             
; 862 | //                                                                     
; 864 | //                                                                     
; 865 | // Next two lines for debug only to halt the processor here            
; 866 | // Remove after inserting ISR Code                                     
; 867 | //                                                                     
;----------------------------------------------------------------------

;***************************************************************
;* FNAME: _EPWM7_ISR                    FR SIZE:   4           *
;*                                                             *
;* FUNCTION ENVIRONMENT                                        *
;*                                                             *
;* FUNCTION PROPERTIES                                         *
;*                            0 Parameter,  0 Auto,  4 SOE     *
;***************************************************************

_EPWM7_ISR:
	.dwcfi	cfa_offset, -2
	.dwcfi	save_reg_to_mem, 26, 0
        ASP       ; [CPU_] 
        PUSH      RB                    ; [CPU_] 
	.dwcfi	save_reg_to_mem, 73, 2
	.dwcfi	save_reg_to_mem, 74, 3
	.dwcfi	cfa_offset, -4
        MOV32     *SP++,STF             ; [CPU_] 
	.dwcfi	save_reg_to_mem, 39, 4
	.dwcfi	save_reg_to_mem, 40, 5
	.dwcfi	cfa_offset, -6
        SETFLG    RNDF32=1, RNDF64=1    ; [CPU_] 
        CLRC      PAGE0,OVM             ; [CPU_] 
        CLRC      AMODE                 ; [CPU_] 
	.dwpsn	file "C:/ti/controlSUITE/device_support/F2837xD/v210/F2837xD_common/source/F2837xD_DefaultISR.c",line 868,column 5,is_stmt,isa 0
;----------------------------------------------------------------------
; 868 | asm ("      ESTOP0");                                                  
;----------------------------------------------------------------------
      ESTOP0
$C$L42:    
	.dwpsn	file "C:/ti/controlSUITE/device_support/F2837xD/v210/F2837xD_common/source/F2837xD_DefaultISR.c",line 869,column 5,is_stmt,isa 0
;----------------------------------------------------------------------
; 869 | for(;;);                                                               
;----------------------------------------------------------------------
        B         $C$L42,UNC            ; [CPU_] |869| 
        ; branch occurs ; [] |869| 
	.dwattr $C$DW$42, DW_AT_TI_end_file("C:/ti/controlSUITE/device_support/F2837xD/v210/F2837xD_common/source/F2837xD_DefaultISR.c")
	.dwattr $C$DW$42, DW_AT_TI_end_line(0x366)
	.dwattr $C$DW$42, DW_AT_TI_end_column(0x01)
	.dwendentry
	.dwendtag $C$DW$42

	.sect	".text:retain"
	.retain
	.retainrefs
	.global	_EPWM8_ISR

$C$DW$43	.dwtag  DW_TAG_subprogram
	.dwattr $C$DW$43, DW_AT_name("EPWM8_ISR")
	.dwattr $C$DW$43, DW_AT_low_pc(_EPWM8_ISR)
	.dwattr $C$DW$43, DW_AT_high_pc(0x00)
	.dwattr $C$DW$43, DW_AT_TI_symbol_name("_EPWM8_ISR")
	.dwattr $C$DW$43, DW_AT_external
	.dwattr $C$DW$43, DW_AT_TI_begin_file("C:/ti/controlSUITE/device_support/F2837xD/v210/F2837xD_common/source/F2837xD_DefaultISR.c")
	.dwattr $C$DW$43, DW_AT_TI_begin_line(0x36b)
	.dwattr $C$DW$43, DW_AT_TI_begin_column(0x10)
	.dwattr $C$DW$43, DW_AT_TI_interrupt
	.dwattr $C$DW$43, DW_AT_TI_max_frame_size(-6)
	.dwpsn	file "C:/ti/controlSUITE/device_support/F2837xD/v210/F2837xD_common/source/F2837xD_DefaultISR.c",line 876,column 1,is_stmt,address _EPWM8_ISR,isa 0

	.dwfde $C$DW$CIE, _EPWM8_ISR
;----------------------------------------------------------------------
; 875 | interrupt void EPWM8_ISR(void)                                         
; 877 | //                                                                     
; 878 | // Insert ISR Code here                                                
; 879 | //                                                                     
; 881 | //                                                                     
; 882 | // To receive more interrupts from this PIE group,                     
; 883 | // acknowledge this interrupt.                                         
; 884 | // PieCtrlRegs.PIEACK.all = PIEACK_GROUP3;                             
; 885 | //                                                                     
; 887 | //                                                                     
; 888 | // Next two lines for debug only to halt the processor here            
; 889 | // Remove after inserting ISR Code                                     
; 890 | //                                                                     
;----------------------------------------------------------------------

;***************************************************************
;* FNAME: _EPWM8_ISR                    FR SIZE:   4           *
;*                                                             *
;* FUNCTION ENVIRONMENT                                        *
;*                                                             *
;* FUNCTION PROPERTIES                                         *
;*                            0 Parameter,  0 Auto,  4 SOE     *
;***************************************************************

_EPWM8_ISR:
	.dwcfi	cfa_offset, -2
	.dwcfi	save_reg_to_mem, 26, 0
        ASP       ; [CPU_] 
        PUSH      RB                    ; [CPU_] 
	.dwcfi	save_reg_to_mem, 73, 2
	.dwcfi	save_reg_to_mem, 74, 3
	.dwcfi	cfa_offset, -4
        MOV32     *SP++,STF             ; [CPU_] 
	.dwcfi	save_reg_to_mem, 39, 4
	.dwcfi	save_reg_to_mem, 40, 5
	.dwcfi	cfa_offset, -6
        SETFLG    RNDF32=1, RNDF64=1    ; [CPU_] 
        CLRC      PAGE0,OVM             ; [CPU_] 
        CLRC      AMODE                 ; [CPU_] 
	.dwpsn	file "C:/ti/controlSUITE/device_support/F2837xD/v210/F2837xD_common/source/F2837xD_DefaultISR.c",line 891,column 5,is_stmt,isa 0
;----------------------------------------------------------------------
; 891 | asm ("      ESTOP0");                                                  
;----------------------------------------------------------------------
      ESTOP0
$C$L43:    
	.dwpsn	file "C:/ti/controlSUITE/device_support/F2837xD/v210/F2837xD_common/source/F2837xD_DefaultISR.c",line 892,column 5,is_stmt,isa 0
;----------------------------------------------------------------------
; 892 | for(;;);                                                               
;----------------------------------------------------------------------
        B         $C$L43,UNC            ; [CPU_] |892| 
        ; branch occurs ; [] |892| 
	.dwattr $C$DW$43, DW_AT_TI_end_file("C:/ti/controlSUITE/device_support/F2837xD/v210/F2837xD_common/source/F2837xD_DefaultISR.c")
	.dwattr $C$DW$43, DW_AT_TI_end_line(0x37d)
	.dwattr $C$DW$43, DW_AT_TI_end_column(0x01)
	.dwendentry
	.dwendtag $C$DW$43

	.sect	".text:retain"
	.retain
	.retainrefs
	.global	_ECAP1_ISR

$C$DW$44	.dwtag  DW_TAG_subprogram
	.dwattr $C$DW$44, DW_AT_name("ECAP1_ISR")
	.dwattr $C$DW$44, DW_AT_low_pc(_ECAP1_ISR)
	.dwattr $C$DW$44, DW_AT_high_pc(0x00)
	.dwattr $C$DW$44, DW_AT_TI_symbol_name("_ECAP1_ISR")
	.dwattr $C$DW$44, DW_AT_external
	.dwattr $C$DW$44, DW_AT_TI_begin_file("C:/ti/controlSUITE/device_support/F2837xD/v210/F2837xD_common/source/F2837xD_DefaultISR.c")
	.dwattr $C$DW$44, DW_AT_TI_begin_line(0x382)
	.dwattr $C$DW$44, DW_AT_TI_begin_column(0x10)
	.dwattr $C$DW$44, DW_AT_TI_interrupt
	.dwattr $C$DW$44, DW_AT_TI_max_frame_size(-6)
	.dwpsn	file "C:/ti/controlSUITE/device_support/F2837xD/v210/F2837xD_common/source/F2837xD_DefaultISR.c",line 899,column 1,is_stmt,address _ECAP1_ISR,isa 0

	.dwfde $C$DW$CIE, _ECAP1_ISR
;----------------------------------------------------------------------
; 898 | interrupt void ECAP1_ISR(void)                                         
; 900 | //                                                                     
; 901 | // Insert ISR Code here                                                
; 902 | //                                                                     
; 904 | //                                                                     
; 905 | // To receive more interrupts from this PIE group,                     
; 906 | // acknowledge this interrupt.                                         
; 907 | // PieCtrlRegs.PIEACK.all = PIEACK_GROUP4;                             
; 908 | //                                                                     
; 910 | //                                                                     
; 911 | // Next two lines for debug only to halt the processor here            
; 912 | // Remove after inserting ISR Code                                     
; 913 | //                                                                     
;----------------------------------------------------------------------

;***************************************************************
;* FNAME: _ECAP1_ISR                    FR SIZE:   4           *
;*                                                             *
;* FUNCTION ENVIRONMENT                                        *
;*                                                             *
;* FUNCTION PROPERTIES                                         *
;*                            0 Parameter,  0 Auto,  4 SOE     *
;***************************************************************

_ECAP1_ISR:
	.dwcfi	cfa_offset, -2
	.dwcfi	save_reg_to_mem, 26, 0
        ASP       ; [CPU_] 
        PUSH      RB                    ; [CPU_] 
	.dwcfi	save_reg_to_mem, 73, 2
	.dwcfi	save_reg_to_mem, 74, 3
	.dwcfi	cfa_offset, -4
        MOV32     *SP++,STF             ; [CPU_] 
	.dwcfi	save_reg_to_mem, 39, 4
	.dwcfi	save_reg_to_mem, 40, 5
	.dwcfi	cfa_offset, -6
        SETFLG    RNDF32=1, RNDF64=1    ; [CPU_] 
        CLRC      PAGE0,OVM             ; [CPU_] 
        CLRC      AMODE                 ; [CPU_] 
	.dwpsn	file "C:/ti/controlSUITE/device_support/F2837xD/v210/F2837xD_common/source/F2837xD_DefaultISR.c",line 914,column 5,is_stmt,isa 0
;----------------------------------------------------------------------
; 914 | asm ("      ESTOP0");                                                  
;----------------------------------------------------------------------
      ESTOP0
$C$L44:    
	.dwpsn	file "C:/ti/controlSUITE/device_support/F2837xD/v210/F2837xD_common/source/F2837xD_DefaultISR.c",line 915,column 5,is_stmt,isa 0
;----------------------------------------------------------------------
; 915 | for(;;);                                                               
;----------------------------------------------------------------------
        B         $C$L44,UNC            ; [CPU_] |915| 
        ; branch occurs ; [] |915| 
	.dwattr $C$DW$44, DW_AT_TI_end_file("C:/ti/controlSUITE/device_support/F2837xD/v210/F2837xD_common/source/F2837xD_DefaultISR.c")
	.dwattr $C$DW$44, DW_AT_TI_end_line(0x394)
	.dwattr $C$DW$44, DW_AT_TI_end_column(0x01)
	.dwendentry
	.dwendtag $C$DW$44

	.sect	".text:retain"
	.retain
	.retainrefs
	.global	_ECAP2_ISR

$C$DW$45	.dwtag  DW_TAG_subprogram
	.dwattr $C$DW$45, DW_AT_name("ECAP2_ISR")
	.dwattr $C$DW$45, DW_AT_low_pc(_ECAP2_ISR)
	.dwattr $C$DW$45, DW_AT_high_pc(0x00)
	.dwattr $C$DW$45, DW_AT_TI_symbol_name("_ECAP2_ISR")
	.dwattr $C$DW$45, DW_AT_external
	.dwattr $C$DW$45, DW_AT_TI_begin_file("C:/ti/controlSUITE/device_support/F2837xD/v210/F2837xD_common/source/F2837xD_DefaultISR.c")
	.dwattr $C$DW$45, DW_AT_TI_begin_line(0x399)
	.dwattr $C$DW$45, DW_AT_TI_begin_column(0x10)
	.dwattr $C$DW$45, DW_AT_TI_interrupt
	.dwattr $C$DW$45, DW_AT_TI_max_frame_size(-6)
	.dwpsn	file "C:/ti/controlSUITE/device_support/F2837xD/v210/F2837xD_common/source/F2837xD_DefaultISR.c",line 922,column 1,is_stmt,address _ECAP2_ISR,isa 0

	.dwfde $C$DW$CIE, _ECAP2_ISR
;----------------------------------------------------------------------
; 921 | interrupt void ECAP2_ISR(void)                                         
; 923 | //                                                                     
; 924 | // Insert ISR Code here                                                
; 925 | //                                                                     
; 927 | //                                                                     
; 928 | // To receive more interrupts from this PIE group,                     
; 929 | // acknowledge this interrupt.                                         
; 930 | // PieCtrlRegs.PIEACK.all = PIEACK_GROUP4;                             
; 931 | //                                                                     
; 933 | //                                                                     
; 934 | // Next two lines for debug only to halt the processor here            
; 935 | // Remove after inserting ISR Code                                     
; 936 | //                                                                     
;----------------------------------------------------------------------

;***************************************************************
;* FNAME: _ECAP2_ISR                    FR SIZE:   4           *
;*                                                             *
;* FUNCTION ENVIRONMENT                                        *
;*                                                             *
;* FUNCTION PROPERTIES                                         *
;*                            0 Parameter,  0 Auto,  4 SOE     *
;***************************************************************

_ECAP2_ISR:
	.dwcfi	cfa_offset, -2
	.dwcfi	save_reg_to_mem, 26, 0
        ASP       ; [CPU_] 
        PUSH      RB                    ; [CPU_] 
	.dwcfi	save_reg_to_mem, 73, 2
	.dwcfi	save_reg_to_mem, 74, 3
	.dwcfi	cfa_offset, -4
        MOV32     *SP++,STF             ; [CPU_] 
	.dwcfi	save_reg_to_mem, 39, 4
	.dwcfi	save_reg_to_mem, 40, 5
	.dwcfi	cfa_offset, -6
        SETFLG    RNDF32=1, RNDF64=1    ; [CPU_] 
        CLRC      PAGE0,OVM             ; [CPU_] 
        CLRC      AMODE                 ; [CPU_] 
	.dwpsn	file "C:/ti/controlSUITE/device_support/F2837xD/v210/F2837xD_common/source/F2837xD_DefaultISR.c",line 937,column 5,is_stmt,isa 0
;----------------------------------------------------------------------
; 937 | asm ("      ESTOP0");                                                  
;----------------------------------------------------------------------
      ESTOP0
$C$L45:    
	.dwpsn	file "C:/ti/controlSUITE/device_support/F2837xD/v210/F2837xD_common/source/F2837xD_DefaultISR.c",line 938,column 5,is_stmt,isa 0
;----------------------------------------------------------------------
; 938 | for(;;);                                                               
;----------------------------------------------------------------------
        B         $C$L45,UNC            ; [CPU_] |938| 
        ; branch occurs ; [] |938| 
	.dwattr $C$DW$45, DW_AT_TI_end_file("C:/ti/controlSUITE/device_support/F2837xD/v210/F2837xD_common/source/F2837xD_DefaultISR.c")
	.dwattr $C$DW$45, DW_AT_TI_end_line(0x3ab)
	.dwattr $C$DW$45, DW_AT_TI_end_column(0x01)
	.dwendentry
	.dwendtag $C$DW$45

	.sect	".text:retain"
	.retain
	.retainrefs
	.global	_ECAP3_ISR

$C$DW$46	.dwtag  DW_TAG_subprogram
	.dwattr $C$DW$46, DW_AT_name("ECAP3_ISR")
	.dwattr $C$DW$46, DW_AT_low_pc(_ECAP3_ISR)
	.dwattr $C$DW$46, DW_AT_high_pc(0x00)
	.dwattr $C$DW$46, DW_AT_TI_symbol_name("_ECAP3_ISR")
	.dwattr $C$DW$46, DW_AT_external
	.dwattr $C$DW$46, DW_AT_TI_begin_file("C:/ti/controlSUITE/device_support/F2837xD/v210/F2837xD_common/source/F2837xD_DefaultISR.c")
	.dwattr $C$DW$46, DW_AT_TI_begin_line(0x3b0)
	.dwattr $C$DW$46, DW_AT_TI_begin_column(0x10)
	.dwattr $C$DW$46, DW_AT_TI_interrupt
	.dwattr $C$DW$46, DW_AT_TI_max_frame_size(-6)
	.dwpsn	file "C:/ti/controlSUITE/device_support/F2837xD/v210/F2837xD_common/source/F2837xD_DefaultISR.c",line 945,column 1,is_stmt,address _ECAP3_ISR,isa 0

	.dwfde $C$DW$CIE, _ECAP3_ISR
;----------------------------------------------------------------------
; 944 | interrupt void ECAP3_ISR(void)                                         
; 946 | //                                                                     
; 947 | // Insert ISR Code here                                                
; 948 | //                                                                     
; 950 | //                                                                     
; 951 | // To receive more interrupts from this PIE group,                     
; 952 | // acknowledge this interrupt.                                         
; 953 | // PieCtrlRegs.PIEACK.all = PIEACK_GROUP4;                             
; 954 | //                                                                     
; 956 | //                                                                     
; 957 | // Next two lines for debug only to halt the processor here            
; 958 | // Remove after inserting ISR Code                                     
; 959 | //                                                                     
;----------------------------------------------------------------------

;***************************************************************
;* FNAME: _ECAP3_ISR                    FR SIZE:   4           *
;*                                                             *
;* FUNCTION ENVIRONMENT                                        *
;*                                                             *
;* FUNCTION PROPERTIES                                         *
;*                            0 Parameter,  0 Auto,  4 SOE     *
;***************************************************************

_ECAP3_ISR:
	.dwcfi	cfa_offset, -2
	.dwcfi	save_reg_to_mem, 26, 0
        ASP       ; [CPU_] 
        PUSH      RB                    ; [CPU_] 
	.dwcfi	save_reg_to_mem, 73, 2
	.dwcfi	save_reg_to_mem, 74, 3
	.dwcfi	cfa_offset, -4
        MOV32     *SP++,STF             ; [CPU_] 
	.dwcfi	save_reg_to_mem, 39, 4
	.dwcfi	save_reg_to_mem, 40, 5
	.dwcfi	cfa_offset, -6
        SETFLG    RNDF32=1, RNDF64=1    ; [CPU_] 
        CLRC      PAGE0,OVM             ; [CPU_] 
        CLRC      AMODE                 ; [CPU_] 
	.dwpsn	file "C:/ti/controlSUITE/device_support/F2837xD/v210/F2837xD_common/source/F2837xD_DefaultISR.c",line 960,column 5,is_stmt,isa 0
;----------------------------------------------------------------------
; 960 | asm ("      ESTOP0");                                                  
;----------------------------------------------------------------------
      ESTOP0
$C$L46:    
	.dwpsn	file "C:/ti/controlSUITE/device_support/F2837xD/v210/F2837xD_common/source/F2837xD_DefaultISR.c",line 961,column 5,is_stmt,isa 0
;----------------------------------------------------------------------
; 961 | for(;;);                                                               
;----------------------------------------------------------------------
        B         $C$L46,UNC            ; [CPU_] |961| 
        ; branch occurs ; [] |961| 
	.dwattr $C$DW$46, DW_AT_TI_end_file("C:/ti/controlSUITE/device_support/F2837xD/v210/F2837xD_common/source/F2837xD_DefaultISR.c")
	.dwattr $C$DW$46, DW_AT_TI_end_line(0x3c2)
	.dwattr $C$DW$46, DW_AT_TI_end_column(0x01)
	.dwendentry
	.dwendtag $C$DW$46

	.sect	".text:retain"
	.retain
	.retainrefs
	.global	_ECAP4_ISR

$C$DW$47	.dwtag  DW_TAG_subprogram
	.dwattr $C$DW$47, DW_AT_name("ECAP4_ISR")
	.dwattr $C$DW$47, DW_AT_low_pc(_ECAP4_ISR)
	.dwattr $C$DW$47, DW_AT_high_pc(0x00)
	.dwattr $C$DW$47, DW_AT_TI_symbol_name("_ECAP4_ISR")
	.dwattr $C$DW$47, DW_AT_external
	.dwattr $C$DW$47, DW_AT_TI_begin_file("C:/ti/controlSUITE/device_support/F2837xD/v210/F2837xD_common/source/F2837xD_DefaultISR.c")
	.dwattr $C$DW$47, DW_AT_TI_begin_line(0x3c7)
	.dwattr $C$DW$47, DW_AT_TI_begin_column(0x10)
	.dwattr $C$DW$47, DW_AT_TI_interrupt
	.dwattr $C$DW$47, DW_AT_TI_max_frame_size(-6)
	.dwpsn	file "C:/ti/controlSUITE/device_support/F2837xD/v210/F2837xD_common/source/F2837xD_DefaultISR.c",line 968,column 1,is_stmt,address _ECAP4_ISR,isa 0

	.dwfde $C$DW$CIE, _ECAP4_ISR
;----------------------------------------------------------------------
; 967 | interrupt void ECAP4_ISR(void)                                         
; 969 | //                                                                     
; 970 | // Insert ISR Code here                                                
; 971 | //                                                                     
; 973 | //                                                                     
; 974 | // To receive more interrupts from this PIE group,                     
; 975 | // acknowledge this interrupt.                                         
; 976 | // PieCtrlRegs.PIEACK.all = PIEACK_GROUP4;                             
; 977 | //                                                                     
; 979 | //                                                                     
; 980 | // Next two lines for debug only to halt the processor here            
; 981 | // Remove after inserting ISR Code                                     
; 982 | //                                                                     
;----------------------------------------------------------------------

;***************************************************************
;* FNAME: _ECAP4_ISR                    FR SIZE:   4           *
;*                                                             *
;* FUNCTION ENVIRONMENT                                        *
;*                                                             *
;* FUNCTION PROPERTIES                                         *
;*                            0 Parameter,  0 Auto,  4 SOE     *
;***************************************************************

_ECAP4_ISR:
	.dwcfi	cfa_offset, -2
	.dwcfi	save_reg_to_mem, 26, 0
        ASP       ; [CPU_] 
        PUSH      RB                    ; [CPU_] 
	.dwcfi	save_reg_to_mem, 73, 2
	.dwcfi	save_reg_to_mem, 74, 3
	.dwcfi	cfa_offset, -4
        MOV32     *SP++,STF             ; [CPU_] 
	.dwcfi	save_reg_to_mem, 39, 4
	.dwcfi	save_reg_to_mem, 40, 5
	.dwcfi	cfa_offset, -6
        SETFLG    RNDF32=1, RNDF64=1    ; [CPU_] 
        CLRC      PAGE0,OVM             ; [CPU_] 
        CLRC      AMODE                 ; [CPU_] 
	.dwpsn	file "C:/ti/controlSUITE/device_support/F2837xD/v210/F2837xD_common/source/F2837xD_DefaultISR.c",line 983,column 5,is_stmt,isa 0
;----------------------------------------------------------------------
; 983 | asm ("      ESTOP0");                                                  
;----------------------------------------------------------------------
      ESTOP0
$C$L47:    
	.dwpsn	file "C:/ti/controlSUITE/device_support/F2837xD/v210/F2837xD_common/source/F2837xD_DefaultISR.c",line 984,column 5,is_stmt,isa 0
;----------------------------------------------------------------------
; 984 | for(;;);                                                               
;----------------------------------------------------------------------
        B         $C$L47,UNC            ; [CPU_] |984| 
        ; branch occurs ; [] |984| 
	.dwattr $C$DW$47, DW_AT_TI_end_file("C:/ti/controlSUITE/device_support/F2837xD/v210/F2837xD_common/source/F2837xD_DefaultISR.c")
	.dwattr $C$DW$47, DW_AT_TI_end_line(0x3d9)
	.dwattr $C$DW$47, DW_AT_TI_end_column(0x01)
	.dwendentry
	.dwendtag $C$DW$47

	.sect	".text:retain"
	.retain
	.retainrefs
	.global	_ECAP5_ISR

$C$DW$48	.dwtag  DW_TAG_subprogram
	.dwattr $C$DW$48, DW_AT_name("ECAP5_ISR")
	.dwattr $C$DW$48, DW_AT_low_pc(_ECAP5_ISR)
	.dwattr $C$DW$48, DW_AT_high_pc(0x00)
	.dwattr $C$DW$48, DW_AT_TI_symbol_name("_ECAP5_ISR")
	.dwattr $C$DW$48, DW_AT_external
	.dwattr $C$DW$48, DW_AT_TI_begin_file("C:/ti/controlSUITE/device_support/F2837xD/v210/F2837xD_common/source/F2837xD_DefaultISR.c")
	.dwattr $C$DW$48, DW_AT_TI_begin_line(0x3de)
	.dwattr $C$DW$48, DW_AT_TI_begin_column(0x10)
	.dwattr $C$DW$48, DW_AT_TI_interrupt
	.dwattr $C$DW$48, DW_AT_TI_max_frame_size(-6)
	.dwpsn	file "C:/ti/controlSUITE/device_support/F2837xD/v210/F2837xD_common/source/F2837xD_DefaultISR.c",line 991,column 1,is_stmt,address _ECAP5_ISR,isa 0

	.dwfde $C$DW$CIE, _ECAP5_ISR
;----------------------------------------------------------------------
; 990 | interrupt void ECAP5_ISR(void)                                         
; 992 | //                                                                     
; 993 | // Insert ISR Code here                                                
; 994 | //                                                                     
; 996 | //                                                                     
; 997 | // To receive more interrupts from this PIE group,                     
; 998 | // acknowledge this interrupt.                                         
; 999 | // PieCtrlRegs.PIEACK.all = PIEACK_GROUP4;                             
; 1000 | //                                                                     
; 1002 | //                                                                     
; 1003 | // Next two lines for debug only to halt the processor here            
; 1004 | // Remove after inserting ISR Code                                     
; 1005 | //                                                                     
;----------------------------------------------------------------------

;***************************************************************
;* FNAME: _ECAP5_ISR                    FR SIZE:   4           *
;*                                                             *
;* FUNCTION ENVIRONMENT                                        *
;*                                                             *
;* FUNCTION PROPERTIES                                         *
;*                            0 Parameter,  0 Auto,  4 SOE     *
;***************************************************************

_ECAP5_ISR:
	.dwcfi	cfa_offset, -2
	.dwcfi	save_reg_to_mem, 26, 0
        ASP       ; [CPU_] 
        PUSH      RB                    ; [CPU_] 
	.dwcfi	save_reg_to_mem, 73, 2
	.dwcfi	save_reg_to_mem, 74, 3
	.dwcfi	cfa_offset, -4
        MOV32     *SP++,STF             ; [CPU_] 
	.dwcfi	save_reg_to_mem, 39, 4
	.dwcfi	save_reg_to_mem, 40, 5
	.dwcfi	cfa_offset, -6
        SETFLG    RNDF32=1, RNDF64=1    ; [CPU_] 
        CLRC      PAGE0,OVM             ; [CPU_] 
        CLRC      AMODE                 ; [CPU_] 
	.dwpsn	file "C:/ti/controlSUITE/device_support/F2837xD/v210/F2837xD_common/source/F2837xD_DefaultISR.c",line 1006,column 5,is_stmt,isa 0
;----------------------------------------------------------------------
; 1006 | asm ("      ESTOP0");                                                  
;----------------------------------------------------------------------
      ESTOP0
$C$L48:    
	.dwpsn	file "C:/ti/controlSUITE/device_support/F2837xD/v210/F2837xD_common/source/F2837xD_DefaultISR.c",line 1007,column 5,is_stmt,isa 0
;----------------------------------------------------------------------
; 1007 | for(;;);                                                               
;----------------------------------------------------------------------
        B         $C$L48,UNC            ; [CPU_] |1007| 
        ; branch occurs ; [] |1007| 
	.dwattr $C$DW$48, DW_AT_TI_end_file("C:/ti/controlSUITE/device_support/F2837xD/v210/F2837xD_common/source/F2837xD_DefaultISR.c")
	.dwattr $C$DW$48, DW_AT_TI_end_line(0x3f0)
	.dwattr $C$DW$48, DW_AT_TI_end_column(0x01)
	.dwendentry
	.dwendtag $C$DW$48

	.sect	".text:retain"
	.retain
	.retainrefs
	.global	_ECAP6_ISR

$C$DW$49	.dwtag  DW_TAG_subprogram
	.dwattr $C$DW$49, DW_AT_name("ECAP6_ISR")
	.dwattr $C$DW$49, DW_AT_low_pc(_ECAP6_ISR)
	.dwattr $C$DW$49, DW_AT_high_pc(0x00)
	.dwattr $C$DW$49, DW_AT_TI_symbol_name("_ECAP6_ISR")
	.dwattr $C$DW$49, DW_AT_external
	.dwattr $C$DW$49, DW_AT_TI_begin_file("C:/ti/controlSUITE/device_support/F2837xD/v210/F2837xD_common/source/F2837xD_DefaultISR.c")
	.dwattr $C$DW$49, DW_AT_TI_begin_line(0x3f5)
	.dwattr $C$DW$49, DW_AT_TI_begin_column(0x10)
	.dwattr $C$DW$49, DW_AT_TI_interrupt
	.dwattr $C$DW$49, DW_AT_TI_max_frame_size(-6)
	.dwpsn	file "C:/ti/controlSUITE/device_support/F2837xD/v210/F2837xD_common/source/F2837xD_DefaultISR.c",line 1014,column 1,is_stmt,address _ECAP6_ISR,isa 0

	.dwfde $C$DW$CIE, _ECAP6_ISR
;----------------------------------------------------------------------
; 1013 | interrupt void ECAP6_ISR(void)                                         
; 1015 | //                                                                     
; 1016 | // Insert ISR Code here                                                
; 1017 | //                                                                     
; 1019 | //                                                                     
; 1020 | // To receive more interrupts from this PIE group,                     
; 1021 | // acknowledge this interrupt.                                         
; 1022 | // PieCtrlRegs.PIEACK.all = PIEACK_GROUP4;                             
; 1023 | //                                                                     
; 1025 | //                                                                     
; 1026 | // Next two lines for debug only to halt the processor here            
; 1027 | // Remove after inserting ISR Code                                     
; 1028 | //                                                                     
;----------------------------------------------------------------------

;***************************************************************
;* FNAME: _ECAP6_ISR                    FR SIZE:   4           *
;*                                                             *
;* FUNCTION ENVIRONMENT                                        *
;*                                                             *
;* FUNCTION PROPERTIES                                         *
;*                            0 Parameter,  0 Auto,  4 SOE     *
;***************************************************************

_ECAP6_ISR:
	.dwcfi	cfa_offset, -2
	.dwcfi	save_reg_to_mem, 26, 0
        ASP       ; [CPU_] 
        PUSH      RB                    ; [CPU_] 
	.dwcfi	save_reg_to_mem, 73, 2
	.dwcfi	save_reg_to_mem, 74, 3
	.dwcfi	cfa_offset, -4
        MOV32     *SP++,STF             ; [CPU_] 
	.dwcfi	save_reg_to_mem, 39, 4
	.dwcfi	save_reg_to_mem, 40, 5
	.dwcfi	cfa_offset, -6
        SETFLG    RNDF32=1, RNDF64=1    ; [CPU_] 
        CLRC      PAGE0,OVM             ; [CPU_] 
        CLRC      AMODE                 ; [CPU_] 
	.dwpsn	file "C:/ti/controlSUITE/device_support/F2837xD/v210/F2837xD_common/source/F2837xD_DefaultISR.c",line 1029,column 5,is_stmt,isa 0
;----------------------------------------------------------------------
; 1029 | asm ("      ESTOP0");                                                  
;----------------------------------------------------------------------
      ESTOP0
$C$L49:    
	.dwpsn	file "C:/ti/controlSUITE/device_support/F2837xD/v210/F2837xD_common/source/F2837xD_DefaultISR.c",line 1030,column 5,is_stmt,isa 0
;----------------------------------------------------------------------
; 1030 | for(;;);                                                               
;----------------------------------------------------------------------
        B         $C$L49,UNC            ; [CPU_] |1030| 
        ; branch occurs ; [] |1030| 
	.dwattr $C$DW$49, DW_AT_TI_end_file("C:/ti/controlSUITE/device_support/F2837xD/v210/F2837xD_common/source/F2837xD_DefaultISR.c")
	.dwattr $C$DW$49, DW_AT_TI_end_line(0x407)
	.dwattr $C$DW$49, DW_AT_TI_end_column(0x01)
	.dwendentry
	.dwendtag $C$DW$49

	.sect	".text:retain"
	.retain
	.retainrefs
	.global	_EQEP1_ISR

$C$DW$50	.dwtag  DW_TAG_subprogram
	.dwattr $C$DW$50, DW_AT_name("EQEP1_ISR")
	.dwattr $C$DW$50, DW_AT_low_pc(_EQEP1_ISR)
	.dwattr $C$DW$50, DW_AT_high_pc(0x00)
	.dwattr $C$DW$50, DW_AT_TI_symbol_name("_EQEP1_ISR")
	.dwattr $C$DW$50, DW_AT_external
	.dwattr $C$DW$50, DW_AT_TI_begin_file("C:/ti/controlSUITE/device_support/F2837xD/v210/F2837xD_common/source/F2837xD_DefaultISR.c")
	.dwattr $C$DW$50, DW_AT_TI_begin_line(0x40c)
	.dwattr $C$DW$50, DW_AT_TI_begin_column(0x10)
	.dwattr $C$DW$50, DW_AT_TI_interrupt
	.dwattr $C$DW$50, DW_AT_TI_max_frame_size(-6)
	.dwpsn	file "C:/ti/controlSUITE/device_support/F2837xD/v210/F2837xD_common/source/F2837xD_DefaultISR.c",line 1037,column 1,is_stmt,address _EQEP1_ISR,isa 0

	.dwfde $C$DW$CIE, _EQEP1_ISR
;----------------------------------------------------------------------
; 1036 | interrupt void EQEP1_ISR(void)                                         
; 1038 | //                                                                     
; 1039 | // Insert ISR Code here                                                
; 1040 | //                                                                     
; 1042 | //                                                                     
; 1043 | // To receive more interrupts from this PIE group,                     
; 1044 | // acknowledge this interrupt.                                         
; 1045 | // PieCtrlRegs.PIEACK.all = PIEACK_GROUP5;                             
; 1046 | //                                                                     
; 1048 | //                                                                     
; 1049 | // Next two lines for debug only to halt the processor here            
; 1050 | // Remove after inserting ISR Code                                     
; 1051 | //                                                                     
;----------------------------------------------------------------------

;***************************************************************
;* FNAME: _EQEP1_ISR                    FR SIZE:   4           *
;*                                                             *
;* FUNCTION ENVIRONMENT                                        *
;*                                                             *
;* FUNCTION PROPERTIES                                         *
;*                            0 Parameter,  0 Auto,  4 SOE     *
;***************************************************************

_EQEP1_ISR:
	.dwcfi	cfa_offset, -2
	.dwcfi	save_reg_to_mem, 26, 0
        ASP       ; [CPU_] 
        PUSH      RB                    ; [CPU_] 
	.dwcfi	save_reg_to_mem, 73, 2
	.dwcfi	save_reg_to_mem, 74, 3
	.dwcfi	cfa_offset, -4
        MOV32     *SP++,STF             ; [CPU_] 
	.dwcfi	save_reg_to_mem, 39, 4
	.dwcfi	save_reg_to_mem, 40, 5
	.dwcfi	cfa_offset, -6
        SETFLG    RNDF32=1, RNDF64=1    ; [CPU_] 
        CLRC      PAGE0,OVM             ; [CPU_] 
        CLRC      AMODE                 ; [CPU_] 
	.dwpsn	file "C:/ti/controlSUITE/device_support/F2837xD/v210/F2837xD_common/source/F2837xD_DefaultISR.c",line 1052,column 5,is_stmt,isa 0
;----------------------------------------------------------------------
; 1052 | asm ("      ESTOP0");                                                  
;----------------------------------------------------------------------
      ESTOP0
$C$L50:    
	.dwpsn	file "C:/ti/controlSUITE/device_support/F2837xD/v210/F2837xD_common/source/F2837xD_DefaultISR.c",line 1053,column 5,is_stmt,isa 0
;----------------------------------------------------------------------
; 1053 | for(;;);                                                               
;----------------------------------------------------------------------
        B         $C$L50,UNC            ; [CPU_] |1053| 
        ; branch occurs ; [] |1053| 
	.dwattr $C$DW$50, DW_AT_TI_end_file("C:/ti/controlSUITE/device_support/F2837xD/v210/F2837xD_common/source/F2837xD_DefaultISR.c")
	.dwattr $C$DW$50, DW_AT_TI_end_line(0x41e)
	.dwattr $C$DW$50, DW_AT_TI_end_column(0x01)
	.dwendentry
	.dwendtag $C$DW$50

	.sect	".text:retain"
	.retain
	.retainrefs
	.global	_EQEP2_ISR

$C$DW$51	.dwtag  DW_TAG_subprogram
	.dwattr $C$DW$51, DW_AT_name("EQEP2_ISR")
	.dwattr $C$DW$51, DW_AT_low_pc(_EQEP2_ISR)
	.dwattr $C$DW$51, DW_AT_high_pc(0x00)
	.dwattr $C$DW$51, DW_AT_TI_symbol_name("_EQEP2_ISR")
	.dwattr $C$DW$51, DW_AT_external
	.dwattr $C$DW$51, DW_AT_TI_begin_file("C:/ti/controlSUITE/device_support/F2837xD/v210/F2837xD_common/source/F2837xD_DefaultISR.c")
	.dwattr $C$DW$51, DW_AT_TI_begin_line(0x423)
	.dwattr $C$DW$51, DW_AT_TI_begin_column(0x10)
	.dwattr $C$DW$51, DW_AT_TI_interrupt
	.dwattr $C$DW$51, DW_AT_TI_max_frame_size(-6)
	.dwpsn	file "C:/ti/controlSUITE/device_support/F2837xD/v210/F2837xD_common/source/F2837xD_DefaultISR.c",line 1060,column 1,is_stmt,address _EQEP2_ISR,isa 0

	.dwfde $C$DW$CIE, _EQEP2_ISR
;----------------------------------------------------------------------
; 1059 | interrupt void EQEP2_ISR(void)                                         
; 1061 | //                                                                     
; 1062 | // Insert ISR Code here                                                
; 1063 | //                                                                     
; 1065 | //                                                                     
; 1066 | // To receive more interrupts from this PIE group,                     
; 1067 | // acknowledge this interrupt.                                         
; 1068 | // PieCtrlRegs.PIEACK.all = PIEACK_GROUP5;                             
; 1069 | //                                                                     
; 1071 | //                                                                     
; 1072 | // Next two lines for debug only to halt the processor here            
; 1073 | // Remove after inserting ISR Code                                     
; 1074 | //                                                                     
;----------------------------------------------------------------------

;***************************************************************
;* FNAME: _EQEP2_ISR                    FR SIZE:   4           *
;*                                                             *
;* FUNCTION ENVIRONMENT                                        *
;*                                                             *
;* FUNCTION PROPERTIES                                         *
;*                            0 Parameter,  0 Auto,  4 SOE     *
;***************************************************************

_EQEP2_ISR:
	.dwcfi	cfa_offset, -2
	.dwcfi	save_reg_to_mem, 26, 0
        ASP       ; [CPU_] 
        PUSH      RB                    ; [CPU_] 
	.dwcfi	save_reg_to_mem, 73, 2
	.dwcfi	save_reg_to_mem, 74, 3
	.dwcfi	cfa_offset, -4
        MOV32     *SP++,STF             ; [CPU_] 
	.dwcfi	save_reg_to_mem, 39, 4
	.dwcfi	save_reg_to_mem, 40, 5
	.dwcfi	cfa_offset, -6
        SETFLG    RNDF32=1, RNDF64=1    ; [CPU_] 
        CLRC      PAGE0,OVM             ; [CPU_] 
        CLRC      AMODE                 ; [CPU_] 
	.dwpsn	file "C:/ti/controlSUITE/device_support/F2837xD/v210/F2837xD_common/source/F2837xD_DefaultISR.c",line 1075,column 5,is_stmt,isa 0
;----------------------------------------------------------------------
; 1075 | asm ("      ESTOP0");                                                  
;----------------------------------------------------------------------
      ESTOP0
$C$L51:    
	.dwpsn	file "C:/ti/controlSUITE/device_support/F2837xD/v210/F2837xD_common/source/F2837xD_DefaultISR.c",line 1076,column 5,is_stmt,isa 0
;----------------------------------------------------------------------
; 1076 | for(;;);                                                               
;----------------------------------------------------------------------
        B         $C$L51,UNC            ; [CPU_] |1076| 
        ; branch occurs ; [] |1076| 
	.dwattr $C$DW$51, DW_AT_TI_end_file("C:/ti/controlSUITE/device_support/F2837xD/v210/F2837xD_common/source/F2837xD_DefaultISR.c")
	.dwattr $C$DW$51, DW_AT_TI_end_line(0x435)
	.dwattr $C$DW$51, DW_AT_TI_end_column(0x01)
	.dwendentry
	.dwendtag $C$DW$51

	.sect	".text:retain"
	.retain
	.retainrefs
	.global	_EQEP3_ISR

$C$DW$52	.dwtag  DW_TAG_subprogram
	.dwattr $C$DW$52, DW_AT_name("EQEP3_ISR")
	.dwattr $C$DW$52, DW_AT_low_pc(_EQEP3_ISR)
	.dwattr $C$DW$52, DW_AT_high_pc(0x00)
	.dwattr $C$DW$52, DW_AT_TI_symbol_name("_EQEP3_ISR")
	.dwattr $C$DW$52, DW_AT_external
	.dwattr $C$DW$52, DW_AT_TI_begin_file("C:/ti/controlSUITE/device_support/F2837xD/v210/F2837xD_common/source/F2837xD_DefaultISR.c")
	.dwattr $C$DW$52, DW_AT_TI_begin_line(0x43a)
	.dwattr $C$DW$52, DW_AT_TI_begin_column(0x10)
	.dwattr $C$DW$52, DW_AT_TI_interrupt
	.dwattr $C$DW$52, DW_AT_TI_max_frame_size(-6)
	.dwpsn	file "C:/ti/controlSUITE/device_support/F2837xD/v210/F2837xD_common/source/F2837xD_DefaultISR.c",line 1083,column 1,is_stmt,address _EQEP3_ISR,isa 0

	.dwfde $C$DW$CIE, _EQEP3_ISR
;----------------------------------------------------------------------
; 1082 | interrupt void EQEP3_ISR(void)                                         
; 1084 | //                                                                     
; 1085 | // Insert ISR Code here                                                
; 1086 | //                                                                     
; 1088 | //                                                                     
; 1089 | // To receive more interrupts from this PIE group,                     
; 1090 | // acknowledge this interrupt.                                         
; 1091 | // PieCtrlRegs.PIEACK.all = PIEACK_GROUP5;                             
; 1092 | //                                                                     
; 1094 | //                                                                     
; 1095 | // Next two lines for debug only to halt the processor here            
; 1096 | // Remove after inserting ISR Code                                     
; 1097 | //                                                                     
;----------------------------------------------------------------------

;***************************************************************
;* FNAME: _EQEP3_ISR                    FR SIZE:   4           *
;*                                                             *
;* FUNCTION ENVIRONMENT                                        *
;*                                                             *
;* FUNCTION PROPERTIES                                         *
;*                            0 Parameter,  0 Auto,  4 SOE     *
;***************************************************************

_EQEP3_ISR:
	.dwcfi	cfa_offset, -2
	.dwcfi	save_reg_to_mem, 26, 0
        ASP       ; [CPU_] 
        PUSH      RB                    ; [CPU_] 
	.dwcfi	save_reg_to_mem, 73, 2
	.dwcfi	save_reg_to_mem, 74, 3
	.dwcfi	cfa_offset, -4
        MOV32     *SP++,STF             ; [CPU_] 
	.dwcfi	save_reg_to_mem, 39, 4
	.dwcfi	save_reg_to_mem, 40, 5
	.dwcfi	cfa_offset, -6
        SETFLG    RNDF32=1, RNDF64=1    ; [CPU_] 
        CLRC      PAGE0,OVM             ; [CPU_] 
        CLRC      AMODE                 ; [CPU_] 
	.dwpsn	file "C:/ti/controlSUITE/device_support/F2837xD/v210/F2837xD_common/source/F2837xD_DefaultISR.c",line 1098,column 5,is_stmt,isa 0
;----------------------------------------------------------------------
; 1098 | asm ("      ESTOP0");                                                  
;----------------------------------------------------------------------
      ESTOP0
$C$L52:    
	.dwpsn	file "C:/ti/controlSUITE/device_support/F2837xD/v210/F2837xD_common/source/F2837xD_DefaultISR.c",line 1099,column 5,is_stmt,isa 0
;----------------------------------------------------------------------
; 1099 | for(;;);                                                               
;----------------------------------------------------------------------
        B         $C$L52,UNC            ; [CPU_] |1099| 
        ; branch occurs ; [] |1099| 
	.dwattr $C$DW$52, DW_AT_TI_end_file("C:/ti/controlSUITE/device_support/F2837xD/v210/F2837xD_common/source/F2837xD_DefaultISR.c")
	.dwattr $C$DW$52, DW_AT_TI_end_line(0x44c)
	.dwattr $C$DW$52, DW_AT_TI_end_column(0x01)
	.dwendentry
	.dwendtag $C$DW$52

	.sect	".text:retain"
	.retain
	.retainrefs
	.global	_SPIA_RX_ISR

$C$DW$53	.dwtag  DW_TAG_subprogram
	.dwattr $C$DW$53, DW_AT_name("SPIA_RX_ISR")
	.dwattr $C$DW$53, DW_AT_low_pc(_SPIA_RX_ISR)
	.dwattr $C$DW$53, DW_AT_high_pc(0x00)
	.dwattr $C$DW$53, DW_AT_TI_symbol_name("_SPIA_RX_ISR")
	.dwattr $C$DW$53, DW_AT_external
	.dwattr $C$DW$53, DW_AT_TI_begin_file("C:/ti/controlSUITE/device_support/F2837xD/v210/F2837xD_common/source/F2837xD_DefaultISR.c")
	.dwattr $C$DW$53, DW_AT_TI_begin_line(0x451)
	.dwattr $C$DW$53, DW_AT_TI_begin_column(0x10)
	.dwattr $C$DW$53, DW_AT_TI_interrupt
	.dwattr $C$DW$53, DW_AT_TI_max_frame_size(-6)
	.dwpsn	file "C:/ti/controlSUITE/device_support/F2837xD/v210/F2837xD_common/source/F2837xD_DefaultISR.c",line 1106,column 1,is_stmt,address _SPIA_RX_ISR,isa 0

	.dwfde $C$DW$CIE, _SPIA_RX_ISR
;----------------------------------------------------------------------
; 1105 | interrupt void SPIA_RX_ISR(void)                                       
; 1107 | //                                                                     
; 1108 | // Insert ISR Code here                                                
; 1109 | //                                                                     
; 1111 | //                                                                     
; 1112 | // To receive more interrupts from this PIE group,                     
; 1113 | // acknowledge this interrupt.                                         
; 1114 | // PieCtrlRegs.PIEACK.all = PIEACK_GROUP6;                             
; 1115 | //                                                                     
; 1117 | //                                                                     
; 1118 | // Next two lines for debug only to halt the processor here            
; 1119 | // Remove after inserting ISR Code                                     
; 1120 | //                                                                     
;----------------------------------------------------------------------

;***************************************************************
;* FNAME: _SPIA_RX_ISR                  FR SIZE:   4           *
;*                                                             *
;* FUNCTION ENVIRONMENT                                        *
;*                                                             *
;* FUNCTION PROPERTIES                                         *
;*                            0 Parameter,  0 Auto,  4 SOE     *
;***************************************************************

_SPIA_RX_ISR:
	.dwcfi	cfa_offset, -2
	.dwcfi	save_reg_to_mem, 26, 0
        ASP       ; [CPU_] 
        PUSH      RB                    ; [CPU_] 
	.dwcfi	save_reg_to_mem, 73, 2
	.dwcfi	save_reg_to_mem, 74, 3
	.dwcfi	cfa_offset, -4
        MOV32     *SP++,STF             ; [CPU_] 
	.dwcfi	save_reg_to_mem, 39, 4
	.dwcfi	save_reg_to_mem, 40, 5
	.dwcfi	cfa_offset, -6
        SETFLG    RNDF32=1, RNDF64=1    ; [CPU_] 
        CLRC      PAGE0,OVM             ; [CPU_] 
        CLRC      AMODE                 ; [CPU_] 
	.dwpsn	file "C:/ti/controlSUITE/device_support/F2837xD/v210/F2837xD_common/source/F2837xD_DefaultISR.c",line 1121,column 5,is_stmt,isa 0
;----------------------------------------------------------------------
; 1121 | asm ("      ESTOP0");                                                  
;----------------------------------------------------------------------
      ESTOP0
$C$L53:    
	.dwpsn	file "C:/ti/controlSUITE/device_support/F2837xD/v210/F2837xD_common/source/F2837xD_DefaultISR.c",line 1122,column 5,is_stmt,isa 0
;----------------------------------------------------------------------
; 1122 | for(;;);                                                               
;----------------------------------------------------------------------
        B         $C$L53,UNC            ; [CPU_] |1122| 
        ; branch occurs ; [] |1122| 
	.dwattr $C$DW$53, DW_AT_TI_end_file("C:/ti/controlSUITE/device_support/F2837xD/v210/F2837xD_common/source/F2837xD_DefaultISR.c")
	.dwattr $C$DW$53, DW_AT_TI_end_line(0x463)
	.dwattr $C$DW$53, DW_AT_TI_end_column(0x01)
	.dwendentry
	.dwendtag $C$DW$53

	.sect	".text:retain"
	.retain
	.retainrefs
	.global	_SPIA_TX_ISR

$C$DW$54	.dwtag  DW_TAG_subprogram
	.dwattr $C$DW$54, DW_AT_name("SPIA_TX_ISR")
	.dwattr $C$DW$54, DW_AT_low_pc(_SPIA_TX_ISR)
	.dwattr $C$DW$54, DW_AT_high_pc(0x00)
	.dwattr $C$DW$54, DW_AT_TI_symbol_name("_SPIA_TX_ISR")
	.dwattr $C$DW$54, DW_AT_external
	.dwattr $C$DW$54, DW_AT_TI_begin_file("C:/ti/controlSUITE/device_support/F2837xD/v210/F2837xD_common/source/F2837xD_DefaultISR.c")
	.dwattr $C$DW$54, DW_AT_TI_begin_line(0x468)
	.dwattr $C$DW$54, DW_AT_TI_begin_column(0x10)
	.dwattr $C$DW$54, DW_AT_TI_interrupt
	.dwattr $C$DW$54, DW_AT_TI_max_frame_size(-6)
	.dwpsn	file "C:/ti/controlSUITE/device_support/F2837xD/v210/F2837xD_common/source/F2837xD_DefaultISR.c",line 1129,column 1,is_stmt,address _SPIA_TX_ISR,isa 0

	.dwfde $C$DW$CIE, _SPIA_TX_ISR
;----------------------------------------------------------------------
; 1128 | interrupt void SPIA_TX_ISR(void)                                       
; 1130 | //                                                                     
; 1131 | // Insert ISR Code here                                                
; 1132 | //                                                                     
; 1134 | //                                                                     
; 1135 | // To receive more interrupts from this PIE group,                     
; 1136 | // acknowledge this interrupt.                                         
; 1137 | // PieCtrlRegs.PIEACK.all = PIEACK_GROUP6;                             
; 1138 | //                                                                     
; 1140 | //                                                                     
; 1141 | // Next two lines for debug only to halt the processor here            
; 1142 | // Remove after inserting ISR Code                                     
; 1143 | //                                                                     
;----------------------------------------------------------------------

;***************************************************************
;* FNAME: _SPIA_TX_ISR                  FR SIZE:   4           *
;*                                                             *
;* FUNCTION ENVIRONMENT                                        *
;*                                                             *
;* FUNCTION PROPERTIES                                         *
;*                            0 Parameter,  0 Auto,  4 SOE     *
;***************************************************************

_SPIA_TX_ISR:
	.dwcfi	cfa_offset, -2
	.dwcfi	save_reg_to_mem, 26, 0
        ASP       ; [CPU_] 
        PUSH      RB                    ; [CPU_] 
	.dwcfi	save_reg_to_mem, 73, 2
	.dwcfi	save_reg_to_mem, 74, 3
	.dwcfi	cfa_offset, -4
        MOV32     *SP++,STF             ; [CPU_] 
	.dwcfi	save_reg_to_mem, 39, 4
	.dwcfi	save_reg_to_mem, 40, 5
	.dwcfi	cfa_offset, -6
        SETFLG    RNDF32=1, RNDF64=1    ; [CPU_] 
        CLRC      PAGE0,OVM             ; [CPU_] 
        CLRC      AMODE                 ; [CPU_] 
	.dwpsn	file "C:/ti/controlSUITE/device_support/F2837xD/v210/F2837xD_common/source/F2837xD_DefaultISR.c",line 1144,column 5,is_stmt,isa 0
;----------------------------------------------------------------------
; 1144 | asm ("      ESTOP0");                                                  
;----------------------------------------------------------------------
      ESTOP0
$C$L54:    
	.dwpsn	file "C:/ti/controlSUITE/device_support/F2837xD/v210/F2837xD_common/source/F2837xD_DefaultISR.c",line 1145,column 5,is_stmt,isa 0
;----------------------------------------------------------------------
; 1145 | for(;;);                                                               
;----------------------------------------------------------------------
        B         $C$L54,UNC            ; [CPU_] |1145| 
        ; branch occurs ; [] |1145| 
	.dwattr $C$DW$54, DW_AT_TI_end_file("C:/ti/controlSUITE/device_support/F2837xD/v210/F2837xD_common/source/F2837xD_DefaultISR.c")
	.dwattr $C$DW$54, DW_AT_TI_end_line(0x47a)
	.dwattr $C$DW$54, DW_AT_TI_end_column(0x01)
	.dwendentry
	.dwendtag $C$DW$54

	.sect	".text:retain"
	.retain
	.retainrefs
	.global	_SPIB_RX_ISR

$C$DW$55	.dwtag  DW_TAG_subprogram
	.dwattr $C$DW$55, DW_AT_name("SPIB_RX_ISR")
	.dwattr $C$DW$55, DW_AT_low_pc(_SPIB_RX_ISR)
	.dwattr $C$DW$55, DW_AT_high_pc(0x00)
	.dwattr $C$DW$55, DW_AT_TI_symbol_name("_SPIB_RX_ISR")
	.dwattr $C$DW$55, DW_AT_external
	.dwattr $C$DW$55, DW_AT_TI_begin_file("C:/ti/controlSUITE/device_support/F2837xD/v210/F2837xD_common/source/F2837xD_DefaultISR.c")
	.dwattr $C$DW$55, DW_AT_TI_begin_line(0x47f)
	.dwattr $C$DW$55, DW_AT_TI_begin_column(0x10)
	.dwattr $C$DW$55, DW_AT_TI_interrupt
	.dwattr $C$DW$55, DW_AT_TI_max_frame_size(-6)
	.dwpsn	file "C:/ti/controlSUITE/device_support/F2837xD/v210/F2837xD_common/source/F2837xD_DefaultISR.c",line 1152,column 1,is_stmt,address _SPIB_RX_ISR,isa 0

	.dwfde $C$DW$CIE, _SPIB_RX_ISR
;----------------------------------------------------------------------
; 1151 | interrupt void SPIB_RX_ISR(void)                                       
; 1153 | //                                                                     
; 1154 | // Insert ISR Code here                                                
; 1155 | //                                                                     
; 1157 | //                                                                     
; 1158 | // To receive more interrupts from this PIE group,                     
; 1159 | // acknowledge this interrupt.                                         
; 1160 | // PieCtrlRegs.PIEACK.all = PIEACK_GROUP6;                             
; 1161 | //                                                                     
; 1163 | //                                                                     
; 1164 | // Next two lines for debug only to halt the processor here            
; 1165 | // Remove after inserting ISR Code                                     
; 1166 | //                                                                     
;----------------------------------------------------------------------

;***************************************************************
;* FNAME: _SPIB_RX_ISR                  FR SIZE:   4           *
;*                                                             *
;* FUNCTION ENVIRONMENT                                        *
;*                                                             *
;* FUNCTION PROPERTIES                                         *
;*                            0 Parameter,  0 Auto,  4 SOE     *
;***************************************************************

_SPIB_RX_ISR:
	.dwcfi	cfa_offset, -2
	.dwcfi	save_reg_to_mem, 26, 0
        ASP       ; [CPU_] 
        PUSH      RB                    ; [CPU_] 
	.dwcfi	save_reg_to_mem, 73, 2
	.dwcfi	save_reg_to_mem, 74, 3
	.dwcfi	cfa_offset, -4
        MOV32     *SP++,STF             ; [CPU_] 
	.dwcfi	save_reg_to_mem, 39, 4
	.dwcfi	save_reg_to_mem, 40, 5
	.dwcfi	cfa_offset, -6
        SETFLG    RNDF32=1, RNDF64=1    ; [CPU_] 
        CLRC      PAGE0,OVM             ; [CPU_] 
        CLRC      AMODE                 ; [CPU_] 
	.dwpsn	file "C:/ti/controlSUITE/device_support/F2837xD/v210/F2837xD_common/source/F2837xD_DefaultISR.c",line 1167,column 5,is_stmt,isa 0
;----------------------------------------------------------------------
; 1167 | asm ("      ESTOP0");                                                  
;----------------------------------------------------------------------
      ESTOP0
$C$L55:    
	.dwpsn	file "C:/ti/controlSUITE/device_support/F2837xD/v210/F2837xD_common/source/F2837xD_DefaultISR.c",line 1168,column 5,is_stmt,isa 0
;----------------------------------------------------------------------
; 1168 | for(;;);                                                               
;----------------------------------------------------------------------
        B         $C$L55,UNC            ; [CPU_] |1168| 
        ; branch occurs ; [] |1168| 
	.dwattr $C$DW$55, DW_AT_TI_end_file("C:/ti/controlSUITE/device_support/F2837xD/v210/F2837xD_common/source/F2837xD_DefaultISR.c")
	.dwattr $C$DW$55, DW_AT_TI_end_line(0x491)
	.dwattr $C$DW$55, DW_AT_TI_end_column(0x01)
	.dwendentry
	.dwendtag $C$DW$55

	.sect	".text:retain"
	.retain
	.retainrefs
	.global	_SPIB_TX_ISR

$C$DW$56	.dwtag  DW_TAG_subprogram
	.dwattr $C$DW$56, DW_AT_name("SPIB_TX_ISR")
	.dwattr $C$DW$56, DW_AT_low_pc(_SPIB_TX_ISR)
	.dwattr $C$DW$56, DW_AT_high_pc(0x00)
	.dwattr $C$DW$56, DW_AT_TI_symbol_name("_SPIB_TX_ISR")
	.dwattr $C$DW$56, DW_AT_external
	.dwattr $C$DW$56, DW_AT_TI_begin_file("C:/ti/controlSUITE/device_support/F2837xD/v210/F2837xD_common/source/F2837xD_DefaultISR.c")
	.dwattr $C$DW$56, DW_AT_TI_begin_line(0x496)
	.dwattr $C$DW$56, DW_AT_TI_begin_column(0x10)
	.dwattr $C$DW$56, DW_AT_TI_interrupt
	.dwattr $C$DW$56, DW_AT_TI_max_frame_size(-6)
	.dwpsn	file "C:/ti/controlSUITE/device_support/F2837xD/v210/F2837xD_common/source/F2837xD_DefaultISR.c",line 1175,column 1,is_stmt,address _SPIB_TX_ISR,isa 0

	.dwfde $C$DW$CIE, _SPIB_TX_ISR
;----------------------------------------------------------------------
; 1174 | interrupt void SPIB_TX_ISR(void)                                       
; 1176 | //                                                                     
; 1177 | // Insert ISR Code here                                                
; 1178 | //                                                                     
; 1180 | //                                                                     
; 1181 | // To receive more interrupts from this PIE group,                     
; 1182 | // acknowledge this interrupt.                                         
; 1183 | // PieCtrlRegs.PIEACK.all = PIEACK_GROUP6;                             
; 1184 | //                                                                     
; 1186 | //                                                                     
; 1187 | // Next two lines for debug only to halt the processor here            
; 1188 | // Remove after inserting ISR Code                                     
; 1189 | //                                                                     
;----------------------------------------------------------------------

;***************************************************************
;* FNAME: _SPIB_TX_ISR                  FR SIZE:   4           *
;*                                                             *
;* FUNCTION ENVIRONMENT                                        *
;*                                                             *
;* FUNCTION PROPERTIES                                         *
;*                            0 Parameter,  0 Auto,  4 SOE     *
;***************************************************************

_SPIB_TX_ISR:
	.dwcfi	cfa_offset, -2
	.dwcfi	save_reg_to_mem, 26, 0
        ASP       ; [CPU_] 
        PUSH      RB                    ; [CPU_] 
	.dwcfi	save_reg_to_mem, 73, 2
	.dwcfi	save_reg_to_mem, 74, 3
	.dwcfi	cfa_offset, -4
        MOV32     *SP++,STF             ; [CPU_] 
	.dwcfi	save_reg_to_mem, 39, 4
	.dwcfi	save_reg_to_mem, 40, 5
	.dwcfi	cfa_offset, -6
        SETFLG    RNDF32=1, RNDF64=1    ; [CPU_] 
        CLRC      PAGE0,OVM             ; [CPU_] 
        CLRC      AMODE                 ; [CPU_] 
	.dwpsn	file "C:/ti/controlSUITE/device_support/F2837xD/v210/F2837xD_common/source/F2837xD_DefaultISR.c",line 1190,column 5,is_stmt,isa 0
;----------------------------------------------------------------------
; 1190 | asm ("      ESTOP0");                                                  
;----------------------------------------------------------------------
      ESTOP0
$C$L56:    
	.dwpsn	file "C:/ti/controlSUITE/device_support/F2837xD/v210/F2837xD_common/source/F2837xD_DefaultISR.c",line 1191,column 5,is_stmt,isa 0
;----------------------------------------------------------------------
; 1191 | for(;;);                                                               
;----------------------------------------------------------------------
        B         $C$L56,UNC            ; [CPU_] |1191| 
        ; branch occurs ; [] |1191| 
	.dwattr $C$DW$56, DW_AT_TI_end_file("C:/ti/controlSUITE/device_support/F2837xD/v210/F2837xD_common/source/F2837xD_DefaultISR.c")
	.dwattr $C$DW$56, DW_AT_TI_end_line(0x4a8)
	.dwattr $C$DW$56, DW_AT_TI_end_column(0x01)
	.dwendentry
	.dwendtag $C$DW$56

	.sect	".text:retain"
	.retain
	.retainrefs
	.global	_MCBSPA_RX_ISR

$C$DW$57	.dwtag  DW_TAG_subprogram
	.dwattr $C$DW$57, DW_AT_name("MCBSPA_RX_ISR")
	.dwattr $C$DW$57, DW_AT_low_pc(_MCBSPA_RX_ISR)
	.dwattr $C$DW$57, DW_AT_high_pc(0x00)
	.dwattr $C$DW$57, DW_AT_TI_symbol_name("_MCBSPA_RX_ISR")
	.dwattr $C$DW$57, DW_AT_external
	.dwattr $C$DW$57, DW_AT_TI_begin_file("C:/ti/controlSUITE/device_support/F2837xD/v210/F2837xD_common/source/F2837xD_DefaultISR.c")
	.dwattr $C$DW$57, DW_AT_TI_begin_line(0x4ad)
	.dwattr $C$DW$57, DW_AT_TI_begin_column(0x10)
	.dwattr $C$DW$57, DW_AT_TI_interrupt
	.dwattr $C$DW$57, DW_AT_TI_max_frame_size(-6)
	.dwpsn	file "C:/ti/controlSUITE/device_support/F2837xD/v210/F2837xD_common/source/F2837xD_DefaultISR.c",line 1198,column 1,is_stmt,address _MCBSPA_RX_ISR,isa 0

	.dwfde $C$DW$CIE, _MCBSPA_RX_ISR
;----------------------------------------------------------------------
; 1197 | interrupt void MCBSPA_RX_ISR(void)                                     
; 1199 | //                                                                     
; 1200 | // Insert ISR Code here                                                
; 1201 | //                                                                     
; 1203 | //                                                                     
; 1204 | // To receive more interrupts from this PIE group,                     
; 1205 | // acknowledge this interrupt.                                         
; 1206 | // PieCtrlRegs.PIEACK.all = PIEACK_GROUP6;                             
; 1207 | //                                                                     
; 1209 | //                                                                     
; 1210 | // Next two lines for debug only to halt the processor here            
; 1211 | // Remove after inserting ISR Code                                     
; 1212 | //                                                                     
;----------------------------------------------------------------------

;***************************************************************
;* FNAME: _MCBSPA_RX_ISR                FR SIZE:   4           *
;*                                                             *
;* FUNCTION ENVIRONMENT                                        *
;*                                                             *
;* FUNCTION PROPERTIES                                         *
;*                            0 Parameter,  0 Auto,  4 SOE     *
;***************************************************************

_MCBSPA_RX_ISR:
	.dwcfi	cfa_offset, -2
	.dwcfi	save_reg_to_mem, 26, 0
        ASP       ; [CPU_] 
        PUSH      RB                    ; [CPU_] 
	.dwcfi	save_reg_to_mem, 73, 2
	.dwcfi	save_reg_to_mem, 74, 3
	.dwcfi	cfa_offset, -4
        MOV32     *SP++,STF             ; [CPU_] 
	.dwcfi	save_reg_to_mem, 39, 4
	.dwcfi	save_reg_to_mem, 40, 5
	.dwcfi	cfa_offset, -6
        SETFLG    RNDF32=1, RNDF64=1    ; [CPU_] 
        CLRC      PAGE0,OVM             ; [CPU_] 
        CLRC      AMODE                 ; [CPU_] 
	.dwpsn	file "C:/ti/controlSUITE/device_support/F2837xD/v210/F2837xD_common/source/F2837xD_DefaultISR.c",line 1213,column 5,is_stmt,isa 0
;----------------------------------------------------------------------
; 1213 | asm ("      ESTOP0");                                                  
;----------------------------------------------------------------------
      ESTOP0
$C$L57:    
	.dwpsn	file "C:/ti/controlSUITE/device_support/F2837xD/v210/F2837xD_common/source/F2837xD_DefaultISR.c",line 1214,column 5,is_stmt,isa 0
;----------------------------------------------------------------------
; 1214 | for(;;);                                                               
;----------------------------------------------------------------------
        B         $C$L57,UNC            ; [CPU_] |1214| 
        ; branch occurs ; [] |1214| 
	.dwattr $C$DW$57, DW_AT_TI_end_file("C:/ti/controlSUITE/device_support/F2837xD/v210/F2837xD_common/source/F2837xD_DefaultISR.c")
	.dwattr $C$DW$57, DW_AT_TI_end_line(0x4bf)
	.dwattr $C$DW$57, DW_AT_TI_end_column(0x01)
	.dwendentry
	.dwendtag $C$DW$57

	.sect	".text:retain"
	.retain
	.retainrefs
	.global	_MCBSPA_TX_ISR

$C$DW$58	.dwtag  DW_TAG_subprogram
	.dwattr $C$DW$58, DW_AT_name("MCBSPA_TX_ISR")
	.dwattr $C$DW$58, DW_AT_low_pc(_MCBSPA_TX_ISR)
	.dwattr $C$DW$58, DW_AT_high_pc(0x00)
	.dwattr $C$DW$58, DW_AT_TI_symbol_name("_MCBSPA_TX_ISR")
	.dwattr $C$DW$58, DW_AT_external
	.dwattr $C$DW$58, DW_AT_TI_begin_file("C:/ti/controlSUITE/device_support/F2837xD/v210/F2837xD_common/source/F2837xD_DefaultISR.c")
	.dwattr $C$DW$58, DW_AT_TI_begin_line(0x4c4)
	.dwattr $C$DW$58, DW_AT_TI_begin_column(0x10)
	.dwattr $C$DW$58, DW_AT_TI_interrupt
	.dwattr $C$DW$58, DW_AT_TI_max_frame_size(-6)
	.dwpsn	file "C:/ti/controlSUITE/device_support/F2837xD/v210/F2837xD_common/source/F2837xD_DefaultISR.c",line 1221,column 1,is_stmt,address _MCBSPA_TX_ISR,isa 0

	.dwfde $C$DW$CIE, _MCBSPA_TX_ISR
;----------------------------------------------------------------------
; 1220 | interrupt void MCBSPA_TX_ISR(void)                                     
; 1222 | //                                                                     
; 1223 | // Insert ISR Code here                                                
; 1224 | //                                                                     
; 1226 | //                                                                     
; 1227 | // To receive more interrupts from this PIE group,                     
; 1228 | // acknowledge this interrupt.                                         
; 1229 | // PieCtrlRegs.PIEACK.all = PIEACK_GROUP6;                             
; 1230 | //                                                                     
; 1232 | //                                                                     
; 1233 | // Next two lines for debug only to halt the processor here            
; 1234 | // Remove after inserting ISR Code                                     
; 1235 | //                                                                     
;----------------------------------------------------------------------

;***************************************************************
;* FNAME: _MCBSPA_TX_ISR                FR SIZE:   4           *
;*                                                             *
;* FUNCTION ENVIRONMENT                                        *
;*                                                             *
;* FUNCTION PROPERTIES                                         *
;*                            0 Parameter,  0 Auto,  4 SOE     *
;***************************************************************

_MCBSPA_TX_ISR:
	.dwcfi	cfa_offset, -2
	.dwcfi	save_reg_to_mem, 26, 0
        ASP       ; [CPU_] 
        PUSH      RB                    ; [CPU_] 
	.dwcfi	save_reg_to_mem, 73, 2
	.dwcfi	save_reg_to_mem, 74, 3
	.dwcfi	cfa_offset, -4
        MOV32     *SP++,STF             ; [CPU_] 
	.dwcfi	save_reg_to_mem, 39, 4
	.dwcfi	save_reg_to_mem, 40, 5
	.dwcfi	cfa_offset, -6
        SETFLG    RNDF32=1, RNDF64=1    ; [CPU_] 
        CLRC      PAGE0,OVM             ; [CPU_] 
        CLRC      AMODE                 ; [CPU_] 
	.dwpsn	file "C:/ti/controlSUITE/device_support/F2837xD/v210/F2837xD_common/source/F2837xD_DefaultISR.c",line 1236,column 5,is_stmt,isa 0
;----------------------------------------------------------------------
; 1236 | asm ("      ESTOP0");                                                  
;----------------------------------------------------------------------
      ESTOP0
$C$L58:    
	.dwpsn	file "C:/ti/controlSUITE/device_support/F2837xD/v210/F2837xD_common/source/F2837xD_DefaultISR.c",line 1237,column 5,is_stmt,isa 0
;----------------------------------------------------------------------
; 1237 | for(;;);                                                               
;----------------------------------------------------------------------
        B         $C$L58,UNC            ; [CPU_] |1237| 
        ; branch occurs ; [] |1237| 
	.dwattr $C$DW$58, DW_AT_TI_end_file("C:/ti/controlSUITE/device_support/F2837xD/v210/F2837xD_common/source/F2837xD_DefaultISR.c")
	.dwattr $C$DW$58, DW_AT_TI_end_line(0x4d6)
	.dwattr $C$DW$58, DW_AT_TI_end_column(0x01)
	.dwendentry
	.dwendtag $C$DW$58

	.sect	".text:retain"
	.retain
	.retainrefs
	.global	_MCBSPB_RX_ISR

$C$DW$59	.dwtag  DW_TAG_subprogram
	.dwattr $C$DW$59, DW_AT_name("MCBSPB_RX_ISR")
	.dwattr $C$DW$59, DW_AT_low_pc(_MCBSPB_RX_ISR)
	.dwattr $C$DW$59, DW_AT_high_pc(0x00)
	.dwattr $C$DW$59, DW_AT_TI_symbol_name("_MCBSPB_RX_ISR")
	.dwattr $C$DW$59, DW_AT_external
	.dwattr $C$DW$59, DW_AT_TI_begin_file("C:/ti/controlSUITE/device_support/F2837xD/v210/F2837xD_common/source/F2837xD_DefaultISR.c")
	.dwattr $C$DW$59, DW_AT_TI_begin_line(0x4db)
	.dwattr $C$DW$59, DW_AT_TI_begin_column(0x10)
	.dwattr $C$DW$59, DW_AT_TI_interrupt
	.dwattr $C$DW$59, DW_AT_TI_max_frame_size(-6)
	.dwpsn	file "C:/ti/controlSUITE/device_support/F2837xD/v210/F2837xD_common/source/F2837xD_DefaultISR.c",line 1244,column 1,is_stmt,address _MCBSPB_RX_ISR,isa 0

	.dwfde $C$DW$CIE, _MCBSPB_RX_ISR
;----------------------------------------------------------------------
; 1243 | interrupt void MCBSPB_RX_ISR(void)                                     
; 1245 | //                                                                     
; 1246 | // Insert ISR Code here                                                
; 1247 | //                                                                     
; 1249 | //                                                                     
; 1250 | // To receive more interrupts from this PIE group,                     
; 1251 | // acknowledge this interrupt.                                         
; 1252 | // PieCtrlRegs.PIEACK.all = PIEACK_GROUP6;                             
; 1253 | //                                                                     
; 1255 | //                                                                     
; 1256 | // Next two lines for debug only to halt the processor here            
; 1257 | // Remove after inserting ISR Code                                     
; 1258 | //                                                                     
;----------------------------------------------------------------------

;***************************************************************
;* FNAME: _MCBSPB_RX_ISR                FR SIZE:   4           *
;*                                                             *
;* FUNCTION ENVIRONMENT                                        *
;*                                                             *
;* FUNCTION PROPERTIES                                         *
;*                            0 Parameter,  0 Auto,  4 SOE     *
;***************************************************************

_MCBSPB_RX_ISR:
	.dwcfi	cfa_offset, -2
	.dwcfi	save_reg_to_mem, 26, 0
        ASP       ; [CPU_] 
        PUSH      RB                    ; [CPU_] 
	.dwcfi	save_reg_to_mem, 73, 2
	.dwcfi	save_reg_to_mem, 74, 3
	.dwcfi	cfa_offset, -4
        MOV32     *SP++,STF             ; [CPU_] 
	.dwcfi	save_reg_to_mem, 39, 4
	.dwcfi	save_reg_to_mem, 40, 5
	.dwcfi	cfa_offset, -6
        SETFLG    RNDF32=1, RNDF64=1    ; [CPU_] 
        CLRC      PAGE0,OVM             ; [CPU_] 
        CLRC      AMODE                 ; [CPU_] 
	.dwpsn	file "C:/ti/controlSUITE/device_support/F2837xD/v210/F2837xD_common/source/F2837xD_DefaultISR.c",line 1259,column 5,is_stmt,isa 0
;----------------------------------------------------------------------
; 1259 | asm ("      ESTOP0");                                                  
;----------------------------------------------------------------------
      ESTOP0
$C$L59:    
	.dwpsn	file "C:/ti/controlSUITE/device_support/F2837xD/v210/F2837xD_common/source/F2837xD_DefaultISR.c",line 1260,column 5,is_stmt,isa 0
;----------------------------------------------------------------------
; 1260 | for(;;);                                                               
;----------------------------------------------------------------------
        B         $C$L59,UNC            ; [CPU_] |1260| 
        ; branch occurs ; [] |1260| 
	.dwattr $C$DW$59, DW_AT_TI_end_file("C:/ti/controlSUITE/device_support/F2837xD/v210/F2837xD_common/source/F2837xD_DefaultISR.c")
	.dwattr $C$DW$59, DW_AT_TI_end_line(0x4ed)
	.dwattr $C$DW$59, DW_AT_TI_end_column(0x01)
	.dwendentry
	.dwendtag $C$DW$59

	.sect	".text:retain"
	.retain
	.retainrefs
	.global	_MCBSPB_TX_ISR

$C$DW$60	.dwtag  DW_TAG_subprogram
	.dwattr $C$DW$60, DW_AT_name("MCBSPB_TX_ISR")
	.dwattr $C$DW$60, DW_AT_low_pc(_MCBSPB_TX_ISR)
	.dwattr $C$DW$60, DW_AT_high_pc(0x00)
	.dwattr $C$DW$60, DW_AT_TI_symbol_name("_MCBSPB_TX_ISR")
	.dwattr $C$DW$60, DW_AT_external
	.dwattr $C$DW$60, DW_AT_TI_begin_file("C:/ti/controlSUITE/device_support/F2837xD/v210/F2837xD_common/source/F2837xD_DefaultISR.c")
	.dwattr $C$DW$60, DW_AT_TI_begin_line(0x4f2)
	.dwattr $C$DW$60, DW_AT_TI_begin_column(0x10)
	.dwattr $C$DW$60, DW_AT_TI_interrupt
	.dwattr $C$DW$60, DW_AT_TI_max_frame_size(-6)
	.dwpsn	file "C:/ti/controlSUITE/device_support/F2837xD/v210/F2837xD_common/source/F2837xD_DefaultISR.c",line 1267,column 1,is_stmt,address _MCBSPB_TX_ISR,isa 0

	.dwfde $C$DW$CIE, _MCBSPB_TX_ISR
;----------------------------------------------------------------------
; 1266 | interrupt void MCBSPB_TX_ISR(void)                                     
; 1268 | //                                                                     
; 1269 | // Insert ISR Code here                                                
; 1270 | //                                                                     
; 1272 | //                                                                     
; 1273 | // To receive more interrupts from this PIE group,                     
; 1274 | // acknowledge this interrupt.                                         
; 1275 | // PieCtrlRegs.PIEACK.all = PIEACK_GROUP6;                             
; 1276 | //                                                                     
; 1278 | //                                                                     
; 1279 | // Next two lines for debug only to halt the processor here            
; 1280 | // Remove after inserting ISR Code                                     
; 1281 | //                                                                     
;----------------------------------------------------------------------

;***************************************************************
;* FNAME: _MCBSPB_TX_ISR                FR SIZE:   4           *
;*                                                             *
;* FUNCTION ENVIRONMENT                                        *
;*                                                             *
;* FUNCTION PROPERTIES                                         *
;*                            0 Parameter,  0 Auto,  4 SOE     *
;***************************************************************

_MCBSPB_TX_ISR:
	.dwcfi	cfa_offset, -2
	.dwcfi	save_reg_to_mem, 26, 0
        ASP       ; [CPU_] 
        PUSH      RB                    ; [CPU_] 
	.dwcfi	save_reg_to_mem, 73, 2
	.dwcfi	save_reg_to_mem, 74, 3
	.dwcfi	cfa_offset, -4
        MOV32     *SP++,STF             ; [CPU_] 
	.dwcfi	save_reg_to_mem, 39, 4
	.dwcfi	save_reg_to_mem, 40, 5
	.dwcfi	cfa_offset, -6
        SETFLG    RNDF32=1, RNDF64=1    ; [CPU_] 
        CLRC      PAGE0,OVM             ; [CPU_] 
        CLRC      AMODE                 ; [CPU_] 
	.dwpsn	file "C:/ti/controlSUITE/device_support/F2837xD/v210/F2837xD_common/source/F2837xD_DefaultISR.c",line 1282,column 5,is_stmt,isa 0
;----------------------------------------------------------------------
; 1282 | asm ("      ESTOP0");                                                  
;----------------------------------------------------------------------
      ESTOP0
$C$L60:    
	.dwpsn	file "C:/ti/controlSUITE/device_support/F2837xD/v210/F2837xD_common/source/F2837xD_DefaultISR.c",line 1283,column 5,is_stmt,isa 0
;----------------------------------------------------------------------
; 1283 | for(;;);                                                               
;----------------------------------------------------------------------
        B         $C$L60,UNC            ; [CPU_] |1283| 
        ; branch occurs ; [] |1283| 
	.dwattr $C$DW$60, DW_AT_TI_end_file("C:/ti/controlSUITE/device_support/F2837xD/v210/F2837xD_common/source/F2837xD_DefaultISR.c")
	.dwattr $C$DW$60, DW_AT_TI_end_line(0x504)
	.dwattr $C$DW$60, DW_AT_TI_end_column(0x01)
	.dwendentry
	.dwendtag $C$DW$60

	.sect	".text:retain"
	.retain
	.retainrefs
	.global	_DMA_CH1_ISR

$C$DW$61	.dwtag  DW_TAG_subprogram
	.dwattr $C$DW$61, DW_AT_name("DMA_CH1_ISR")
	.dwattr $C$DW$61, DW_AT_low_pc(_DMA_CH1_ISR)
	.dwattr $C$DW$61, DW_AT_high_pc(0x00)
	.dwattr $C$DW$61, DW_AT_TI_symbol_name("_DMA_CH1_ISR")
	.dwattr $C$DW$61, DW_AT_external
	.dwattr $C$DW$61, DW_AT_TI_begin_file("C:/ti/controlSUITE/device_support/F2837xD/v210/F2837xD_common/source/F2837xD_DefaultISR.c")
	.dwattr $C$DW$61, DW_AT_TI_begin_line(0x509)
	.dwattr $C$DW$61, DW_AT_TI_begin_column(0x10)
	.dwattr $C$DW$61, DW_AT_TI_interrupt
	.dwattr $C$DW$61, DW_AT_TI_max_frame_size(-6)
	.dwpsn	file "C:/ti/controlSUITE/device_support/F2837xD/v210/F2837xD_common/source/F2837xD_DefaultISR.c",line 1290,column 1,is_stmt,address _DMA_CH1_ISR,isa 0

	.dwfde $C$DW$CIE, _DMA_CH1_ISR
;----------------------------------------------------------------------
; 1289 | interrupt void DMA_CH1_ISR(void)                                       
; 1291 | //                                                                     
; 1292 | // Insert ISR Code here                                                
; 1293 | //                                                                     
; 1295 | //                                                                     
; 1296 | // To receive more interrupts from this PIE group,                     
; 1297 | // acknowledge this interrupt.                                         
; 1298 | // PieCtrlRegs.PIEACK.all = PIEACK_GROUP7;                             
; 1299 | //                                                                     
; 1301 | //                                                                     
; 1302 | // Next two lines for debug only to halt the processor here            
; 1303 | // Remove after inserting ISR Code                                     
; 1304 | //                                                                     
;----------------------------------------------------------------------

;***************************************************************
;* FNAME: _DMA_CH1_ISR                  FR SIZE:   4           *
;*                                                             *
;* FUNCTION ENVIRONMENT                                        *
;*                                                             *
;* FUNCTION PROPERTIES                                         *
;*                            0 Parameter,  0 Auto,  4 SOE     *
;***************************************************************

_DMA_CH1_ISR:
	.dwcfi	cfa_offset, -2
	.dwcfi	save_reg_to_mem, 26, 0
        ASP       ; [CPU_] 
        PUSH      RB                    ; [CPU_] 
	.dwcfi	save_reg_to_mem, 73, 2
	.dwcfi	save_reg_to_mem, 74, 3
	.dwcfi	cfa_offset, -4
        MOV32     *SP++,STF             ; [CPU_] 
	.dwcfi	save_reg_to_mem, 39, 4
	.dwcfi	save_reg_to_mem, 40, 5
	.dwcfi	cfa_offset, -6
        SETFLG    RNDF32=1, RNDF64=1    ; [CPU_] 
        CLRC      PAGE0,OVM             ; [CPU_] 
        CLRC      AMODE                 ; [CPU_] 
	.dwpsn	file "C:/ti/controlSUITE/device_support/F2837xD/v210/F2837xD_common/source/F2837xD_DefaultISR.c",line 1305,column 5,is_stmt,isa 0
;----------------------------------------------------------------------
; 1305 | asm ("      ESTOP0");                                                  
;----------------------------------------------------------------------
      ESTOP0
$C$L61:    
	.dwpsn	file "C:/ti/controlSUITE/device_support/F2837xD/v210/F2837xD_common/source/F2837xD_DefaultISR.c",line 1306,column 5,is_stmt,isa 0
;----------------------------------------------------------------------
; 1306 | for(;;);                                                               
;----------------------------------------------------------------------
        B         $C$L61,UNC            ; [CPU_] |1306| 
        ; branch occurs ; [] |1306| 
	.dwattr $C$DW$61, DW_AT_TI_end_file("C:/ti/controlSUITE/device_support/F2837xD/v210/F2837xD_common/source/F2837xD_DefaultISR.c")
	.dwattr $C$DW$61, DW_AT_TI_end_line(0x51b)
	.dwattr $C$DW$61, DW_AT_TI_end_column(0x01)
	.dwendentry
	.dwendtag $C$DW$61

	.sect	".text:retain"
	.retain
	.retainrefs
	.global	_DMA_CH2_ISR

$C$DW$62	.dwtag  DW_TAG_subprogram
	.dwattr $C$DW$62, DW_AT_name("DMA_CH2_ISR")
	.dwattr $C$DW$62, DW_AT_low_pc(_DMA_CH2_ISR)
	.dwattr $C$DW$62, DW_AT_high_pc(0x00)
	.dwattr $C$DW$62, DW_AT_TI_symbol_name("_DMA_CH2_ISR")
	.dwattr $C$DW$62, DW_AT_external
	.dwattr $C$DW$62, DW_AT_TI_begin_file("C:/ti/controlSUITE/device_support/F2837xD/v210/F2837xD_common/source/F2837xD_DefaultISR.c")
	.dwattr $C$DW$62, DW_AT_TI_begin_line(0x520)
	.dwattr $C$DW$62, DW_AT_TI_begin_column(0x10)
	.dwattr $C$DW$62, DW_AT_TI_interrupt
	.dwattr $C$DW$62, DW_AT_TI_max_frame_size(-6)
	.dwpsn	file "C:/ti/controlSUITE/device_support/F2837xD/v210/F2837xD_common/source/F2837xD_DefaultISR.c",line 1313,column 1,is_stmt,address _DMA_CH2_ISR,isa 0

	.dwfde $C$DW$CIE, _DMA_CH2_ISR
;----------------------------------------------------------------------
; 1312 | interrupt void DMA_CH2_ISR(void)                                       
; 1314 | //                                                                     
; 1315 | // Insert ISR Code here                                                
; 1316 | //                                                                     
; 1318 | //                                                                     
; 1319 | // To receive more interrupts from this PIE group,                     
; 1320 | // acknowledge this interrupt.                                         
; 1321 | // PieCtrlRegs.PIEACK.all = PIEACK_GROUP7;                             
; 1322 | //                                                                     
; 1324 | //                                                                     
; 1325 | // Next two lines for debug only to halt the processor here            
; 1326 | // Remove after inserting ISR Code                                     
; 1327 | //                                                                     
;----------------------------------------------------------------------

;***************************************************************
;* FNAME: _DMA_CH2_ISR                  FR SIZE:   4           *
;*                                                             *
;* FUNCTION ENVIRONMENT                                        *
;*                                                             *
;* FUNCTION PROPERTIES                                         *
;*                            0 Parameter,  0 Auto,  4 SOE     *
;***************************************************************

_DMA_CH2_ISR:
	.dwcfi	cfa_offset, -2
	.dwcfi	save_reg_to_mem, 26, 0
        ASP       ; [CPU_] 
        PUSH      RB                    ; [CPU_] 
	.dwcfi	save_reg_to_mem, 73, 2
	.dwcfi	save_reg_to_mem, 74, 3
	.dwcfi	cfa_offset, -4
        MOV32     *SP++,STF             ; [CPU_] 
	.dwcfi	save_reg_to_mem, 39, 4
	.dwcfi	save_reg_to_mem, 40, 5
	.dwcfi	cfa_offset, -6
        SETFLG    RNDF32=1, RNDF64=1    ; [CPU_] 
        CLRC      PAGE0,OVM             ; [CPU_] 
        CLRC      AMODE                 ; [CPU_] 
	.dwpsn	file "C:/ti/controlSUITE/device_support/F2837xD/v210/F2837xD_common/source/F2837xD_DefaultISR.c",line 1328,column 5,is_stmt,isa 0
;----------------------------------------------------------------------
; 1328 | asm ("      ESTOP0");                                                  
;----------------------------------------------------------------------
      ESTOP0
$C$L62:    
	.dwpsn	file "C:/ti/controlSUITE/device_support/F2837xD/v210/F2837xD_common/source/F2837xD_DefaultISR.c",line 1329,column 5,is_stmt,isa 0
;----------------------------------------------------------------------
; 1329 | for(;;);                                                               
;----------------------------------------------------------------------
        B         $C$L62,UNC            ; [CPU_] |1329| 
        ; branch occurs ; [] |1329| 
	.dwattr $C$DW$62, DW_AT_TI_end_file("C:/ti/controlSUITE/device_support/F2837xD/v210/F2837xD_common/source/F2837xD_DefaultISR.c")
	.dwattr $C$DW$62, DW_AT_TI_end_line(0x532)
	.dwattr $C$DW$62, DW_AT_TI_end_column(0x01)
	.dwendentry
	.dwendtag $C$DW$62

	.sect	".text:retain"
	.retain
	.retainrefs
	.global	_DMA_CH3_ISR

$C$DW$63	.dwtag  DW_TAG_subprogram
	.dwattr $C$DW$63, DW_AT_name("DMA_CH3_ISR")
	.dwattr $C$DW$63, DW_AT_low_pc(_DMA_CH3_ISR)
	.dwattr $C$DW$63, DW_AT_high_pc(0x00)
	.dwattr $C$DW$63, DW_AT_TI_symbol_name("_DMA_CH3_ISR")
	.dwattr $C$DW$63, DW_AT_external
